(dp0
S'http://dbpedia.org/property/origin'
p1
I13370
sS'http://dbpedia.org/property/dateOfBirth'
p2
I28
sS'http://dbpedia.org/property/stat4label'
p3
I84
sS'http://dbpedia.org/property/\xd7\xa2\xd7\x9e\xd7\x93\xd7\x94'
p4
I254
sS'http://dbpedia.org/property/racquet'
p5
I28
sS'http://dbpedia.org/property/hometown'
p6
I1283
sS'http://dbpedia.org/property/movement'
p7
I4245
sS'http://dbpedia.org/property/nationality'
p8
I54358
sS'http://dbpedia.org/property/denomination'
p9
I101
sS'http://dbpedia.org/property/type'
p10
I1574
sS'http://dbpedia.org/property/wife'
p11
I177
sS'http://dbpedia.org/property/first'
p12
I33
sS'http://dbpedia.org/property/dipstyle'
p13
I938
sS'http://dbpedia.org/property/constituency'
p14
I5390
sS'http://dbpedia.org/property/highschool'
p15
I9491
sS'http://dbpedia.org/property/province'
p16
I209
sS'http://dbpedia.org/property/dateOfDeath'
p17
I23
sS'http://dbpedia.org/property/branch'
p18
I14570
sS'http://dbpedia.org/property/deathCause'
p19
I3670
sS'http://dbpedia.org/property/birthDate'
p20
I238
sS'http://dbpedia.org/property/playerPositions'
p21
I1174
sS'http://dbpedia.org/property/conference'
p22
I1236
sS'http://dbpedia.org/property/governor'
p23
I2497
sS'http://dbpedia.org/property/teams'
p24
I531
sS'http://dbpedia.org/property/partner'
p25
I1296
sS'http://dbpedia.org/property/birthPlace'
p26
I443393
sS'http://dbpedia.org/property/royalHouse'
p27
I452
sS'http://dbpedia.org/property/predecessor'
p28
I64755
sS'http://dbpedia.org/property/teama'
p29
I3838
sS'http://dbpedia.org/property/teamb'
p30
I1829
sS'http://dbpedia.org/property/teamc'
p31
I508
sS'http://dbpedia.org/property/burialPlace'
p32
I801
sS'http://dbpedia.org/property/\xd7\x90\xd7\xa8\xd7\xa5\xd7\x9c\xd7\x99\xd7\x93\xd7\x94'
p33
I3720
sS'http://dbpedia.org/property/publisher'
p34
I3913
sS'http://dbpedia.org/property/post1followed'
p35
I249
sS'http://dbpedia.org/property/offstyle'
p36
I398
sS'http://dbpedia.org/property/role'
p37
I88
sS'http://dbpedia.org/property/column'
p38
I11271
sS'http://dbpedia.org/property/proteam'
p39
I1074
sS'http://dbpedia.org/property/formerpartner'
p40
I721
sS'http://dbpedia.org/property/titles'
p41
I307
sS'http://dbpedia.org/property/conf'
p42
I1911
sS'http://dbpedia.org/property/canonizedBy'
p43
I124
sS'http://dbpedia.org/property/fullName'
p44
I43
sS'http://dbpedia.org/property/coachingTeam'
p45
I29
sS'http://dbpedia.org/property/\xd7\x9e\xd7\x95\xd7\xa6\xd7\x99\xd7\x90\xd7\x9c\xd7\x90\xd7\x95\xd7\xa8'
p46
I294
sS'http://dbpedia.org/property/fightingOutOf'
p47
I1126
sS'http://dbpedia.org/property/coachTeam'
p48
I6630
sS'http://dbpedia.org/property/prospectLeague'
p49
I522
sS'http://dbpedia.org/property/indivhonour'
p50
I114
sS'http://dbpedia.org/property/training'
p51
I3086
sS'http://dbpedia.org/property/classification'
p52
I1595
sS'http://dbpedia.org/property/strokes'
p53
I2516
sS'http://dbpedia.org/property/\xd7\x9e\xd7\x93\xd7\x99\xd7\xa0\xd7\x94'
p54
I1528
sS'http://dbpedia.org/property/nfldraftedteam'
p55
I45
sS'http://dbpedia.org/property/knownFor'
p56
I8461
sS'http://dbpedia.org/property/significantBuildings'
p57
I156
sS'http://dbpedia.org/property/almaMater'
p58
I68864
sS'http://dbpedia.org/property/electorate'
p59
I432
sS'http://dbpedia.org/property/notableIdeas'
p60
I40
sS'http://dbpedia.org/property/coa'
p61
I235
sS'http://dbpedia.org/property/boards'
p62
I27
sS'http://dbpedia.org/property/occupation'
p63
I62398
sS'http://dbpedia.org/property/spouse'
p64
I26638
sS'http://dbpedia.org/property/originalteam'
p65
I2636
sS'http://dbpedia.org/property/alliances'
p66
I2311
sS'http://dbpedia.org/property/award'
p67
I247
sS'http://dbpedia.org/property/restingplace'
p68
I1442
sS'http://dbpedia.org/property/post'
p69
I187
sS'http://dbpedia.org/property/medium'
p70
I26
sS'http://dbpedia.org/property/employer'
p71
I3934
sS'http://dbpedia.org/property/notableInstruments'
p72
I1985
sS'http://dbpedia.org/property/currenttraininglocations'
p73
I248
sS'http://dbpedia.org/property/currentposition'
p74
I147
sS'http://dbpedia.org/property/sooteams'
p75
I144
sS'http://dbpedia.org/property/mother'
p76
I8008
sS'http://dbpedia.org/property/martialArt'
p77
I72
sS'http://dbpedia.org/property/third'
p78
I67
sS'http://dbpedia.org/property/title'
p79
I75937
sS'http://dbpedia.org/property/otherparty'
p80
I1763
sS'http://dbpedia.org/property/chiefminister'
p81
I29
sS'http://dbpedia.org/property/parents'
p82
I5196
sS'http://dbpedia.org/property/\xd7\xa1\xd7\x95\xd7\x92'
p83
I307
sS'http://dbpedia.org/property/placeOfDeath'
p84
I95321
sS'http://dbpedia.org/property/super'
p85
I446
sS'http://dbpedia.org/property/\xd7\xa4\xd7\xa8\xd7\xa1\xd7\x99\xd7\x9d'
p86
I38
sS'http://dbpedia.org/property/adminTeam'
p87
I248
sS'http://dbpedia.org/property/domesticteams'
p88
I89
sS'http://dbpedia.org/property/patronage'
p89
I41
sS'http://dbpedia.org/property/moto3Manufacturers'
p90
I23
sS'http://dbpedia.org/property/religion'
p91
I35584
sS'http://dbpedia.org/property/relations'
p92
I3466
sS'http://dbpedia.org/property/currentteam'
p93
I415
sS'http://dbpedia.org/property/1namedata'
p94
I445
sS'http://dbpedia.org/property/createdCardinalBy'
p95
I157
sS'http://dbpedia.org/property/consecratedBy'
p96
I1600
sS'http://dbpedia.org/property/125Manufacturers'
p97
I57
sS'http://dbpedia.org/property/office'
p98
I18323
sS'http://dbpedia.org/property/institution'
p99
I284
sS'http://dbpedia.org/property/lead'
p100
I60
sS'http://dbpedia.org/property/beatifiedPlace'
p101
I75
sS'http://dbpedia.org/property/prizes'
p102
I1490
sS'http://dbpedia.org/property/partners'
p103
I78
sS'http://dbpedia.org/property/\xd7\x9e\xd7\xa7\xd7\x95\xd7\x9d\xd7\x9c\xd7\x99\xd7\x93\xd7\x94'
p104
I4748
sS'http://dbpedia.org/property/\xd7\x94\xd7\x91\xd7\x90'
p105
I783
sS'http://dbpedia.org/property/residence'
p106
I31562
sS'http://dbpedia.org/property/coach'
p107
I971
sS'http://dbpedia.org/property/currentclub'
p108
I65293
sS'http://dbpedia.org/property/series'
p109
I2657
sS'http://dbpedia.org/property/restingPlace'
p110
I3814
sS'http://dbpedia.org/property/\xd7\x9e\xd7\x95\xd7\xa9\xd7\xa4\xd7\xa2\xd7\x99\xd7\x9d'
p111
I60
sS'http://dbpedia.org/property/genre'
p112
I41219
sS'http://dbpedia.org/property/\xd7\xa2\xd7\xa0\xd7\xa3\xd7\x9e\xd7\x93\xd7\xa2\xd7\x99'
p113
I1148
sS'http://dbpedia.org/property/label'
p114
I14836
sS'http://dbpedia.org/property/ruPosition'
p115
I5223
sS'http://dbpedia.org/property/heya'
p116
I213
sS'http://dbpedia.org/property/gpTeams'
p117
I131
sS'http://dbpedia.org/property/clubs'
p118
I128360
sS'http://dbpedia.org/property/nationalteam'
p119
I58164
sS'http://dbpedia.org/property/playedFor'
p120
I6613
sS'http://dbpedia.org/property/aflstatlabel'
p121
I85
sS'http://dbpedia.org/property/nephews'
p122
I124
sS'http://dbpedia.org/property/lastagainst'
p123
I1013
sS'http://dbpedia.org/property/honorificSuffix'
p124
I9163
sS'http://dbpedia.org/property/weapon'
p125
I145
sS'http://dbpedia.org/property/lieutenant'
p126
I1084
sS'http://dbpedia.org/property/kingdom'
p127
I79
sS'http://dbpedia.org/property/coachclubs'
p128
I102
sS'http://dbpedia.org/property/grandmothers'
p129
I57
sS'http://dbpedia.org/property/succeeded'
p130
I8406
sS'http://dbpedia.org/property/notableWorks'
p131
I384
sS'http://dbpedia.org/property/instrument'
p132
I16055
sS'http://dbpedia.org/property/currentpositionplain'
p133
I385
sS'http://dbpedia.org/property/currentTitle'
p134
I647
sS'http://dbpedia.org/property/notableStudents'
p135
I169
sS'http://dbpedia.org/property/portrayer'
p136
I4567
sS'http://dbpedia.org/property/ruProvince'
p137
I1535
sS'http://dbpedia.org/property/debutteam'
p138
I7983
sS'http://dbpedia.org/property/children'
p139
I6545
sS'http://dbpedia.org/property/careerPosition'
p140
I685
sS'http://dbpedia.org/property/aunts'
p141
I27
sS'http://dbpedia.org/property/education'
p142
I11045
sS'http://dbpedia.org/property/source'
p143
I276
sS'http://dbpedia.org/property/see'
p144
I2461
sS'http://dbpedia.org/property/grandsons'
p145
I24
sS'http://dbpedia.org/property/prevSeries'
p146
I920
sS'http://dbpedia.org/property/dynasty'
p147
I652
sS'http://dbpedia.org/property/career'
p148
I488
sS'http://dbpedia.org/property/\xd7\xaa\xd7\xa4\xd7\xa7\xd7\x99\xd7\x93\xd7\x9b\xd7\xa9\xd7\x97\xd7\xa7\xd7\x9f'
p149
I2718
sS'http://dbpedia.org/property/debutagainst'
p150
I1538
sS'http://dbpedia.org/property/issue'
p151
I5650
sS'http://dbpedia.org/property/formerNllTeams'
p152
I25
sS'http://dbpedia.org/property/after'
p153
I86091
sS'http://dbpedia.org/property/youthclubs'
p154
I55916
sS'http://dbpedia.org/property/party'
p155
I65310
sS'http://dbpedia.org/property/cis'
p156
I261
sS'http://dbpedia.org/property/\xd7\x96\xd7\xa8\xd7\x9d'
p157
I45
sS'http://dbpedia.org/property/workplaces'
p158
I7214
sS'http://dbpedia.org/property/television'
p159
I66
sS'http://dbpedia.org/property/agent'
p160
I457
sS'http://dbpedia.org/property/trainer'
p161
I1876
sS'http://dbpedia.org/property/collegeteam'
p162
I1471
sS'http://dbpedia.org/property/order'
p163
I3780
sS'http://dbpedia.org/property/next'
p164
I59
sS'http://dbpedia.org/property/university'
p165
I1677
sS'http://dbpedia.org/property/nobleFamily'
p166
I2399
sS'http://dbpedia.org/property/venerated'
p167
I35
sS'http://dbpedia.org/property/placeofburial'
p168
I3584
sS'http://dbpedia.org/property/subject'
p169
I782
sS'http://dbpedia.org/property/currentSeries'
p170
I589
sS'http://dbpedia.org/property/event'
p171
I3148
sS'http://dbpedia.org/property/classes'
p172
I141
sS'http://dbpedia.org/property/rank'
p173
I18976
sS'http://dbpedia.org/property/horses'
p174
I272
sS'http://dbpedia.org/property/last'
p175
I146
sS'http://dbpedia.org/property/location'
p176
I84
sS'http://dbpedia.org/property/managerclubs'
p177
I16559
sS'http://dbpedia.org/property/height'
p178
I23
sS'http://dbpedia.org/property/\xd7\xa1\xd7\x99\xd7\xa2\xd7\x95\xd7\xaa'
p179
I653
sS'http://dbpedia.org/property/lieutenantGovernor'
p180
I178
sS'http://dbpedia.org/property/repteam'
p181
I458
sS'http://dbpedia.org/property/preceded'
p182
I8744
sS'http://dbpedia.org/property/debutstadium'
p183
I419
sS'http://dbpedia.org/property/otherPost'
p184
I526
sS'http://dbpedia.org/property/\xd7\x9e\xd7\x95\xd7\xa2\xd7\x93\xd7\x95\xd7\xa0\xd7\x99\xd7\xa0\xd7\x95\xd7\xa2\xd7\xa8'
p185
I846
sS'http://dbpedia.org/property/data'
p186
I689
sS'http://dbpedia.org/property/stat2label'
p187
I1511
sS'http://dbpedia.org/property/doctoralAdvisor'
p188
I4982
sS'http://dbpedia.org/property/lastfor'
p189
I711
sS'http://dbpedia.org/property/awards'
p190
I24220
sS'http://dbpedia.org/property/laterwork'
p191
I532
sS'http://dbpedia.org/property/granddaughters'
p192
I56
sS'http://dbpedia.org/property/monarch'
p193
I4585
sS'http://dbpedia.org/property/unit'
p194
I5135
sS'http://dbpedia.org/property/postseason'
p195
I39
sS'http://dbpedia.org/property/shortDescription'
p196
I10118
sS'http://dbpedia.org/property/ordainedBy'
p197
I137
sS'http://dbpedia.org/property/bowlname'
p198
I268
sS'http://dbpedia.org/property/associatedActs'
p199
I18044
sS'http://dbpedia.org/property/schoolTradition'
p200
I1273
sS'http://dbpedia.org/property/draftTeamPba'
p201
I108
sS'http://dbpedia.org/property/\xd7\xa7\xd7\x91\xd7\x95\xd7\xa6\xd7\xaa\xd7\x93\xd7\xa8\xd7\x90\xd7\xa4\xd7\x98'
p202
I174
sS'http://dbpedia.org/property/\xd7\x9e\xd7\xa9\xd7\xa4\xd7\x99\xd7\xa2\xd7\x99\xd7\x9d'
p203
I107
sS'http://dbpedia.org/property/district'
p204
I730
sS'http://dbpedia.org/property/ruNationalteam'
p205
I3527
sS'http://dbpedia.org/property/position'
p206
I150867
sS'http://dbpedia.org/property/weightClass'
p207
I1875
sS'http://dbpedia.org/property/influencedBy'
p208
I1115
sS'http://dbpedia.org/property/romances'
p209
I16
sS'http://dbpedia.org/property/diocese'
p210
I1714
sS'http://dbpedia.org/property/hairColor'
p211
I28
sS'http://dbpedia.org/property/formertraininglocations'
p212
I82
sS'http://dbpedia.org/property/second'
p213
I56
sS'http://dbpedia.org/property/introducer'
p214
I938
sS'http://dbpedia.org/property/before'
p215
I85635
sS'http://dbpedia.org/property/cousins'
p216
I172
sS'http://dbpedia.org/property/pmoyPreceded'
p217
I27
sS'http://dbpedia.org/property/affiliation'
p218
I40
sS'http://dbpedia.org/property/school'
p219
I3526
sS'http://dbpedia.org/property/candidate'
p220
I582
sS'http://dbpedia.org/property/post2followed'
p221
I37
sS'http://dbpedia.org/property/skip'
p222
I103
sS'http://dbpedia.org/property/skis'
p223
I43
sS'http://dbpedia.org/property/\xd7\x9e\xd7\x95\xd7\xa7\xd7\x93\xd7\xa4\xd7\xa2\xd7\x99\xd7\x9c\xd7\x95\xd7\xaa'
p224
I32
sS'http://dbpedia.org/property/region'
p225
I533
sS'http://dbpedia.org/property/discipline'
p226
I906
sS'http://dbpedia.org/property/halfbrothers'
p227
I74
sS'http://dbpedia.org/property/ruAmateurclubs'
p228
I1501
sS'http://dbpedia.org/property/ruCurrentteam'
p229
I39
sS'http://dbpedia.org/property/weight'
p230
I1249
sS'http://dbpedia.org/property/finalteam'
p231
I6531
sS'http://dbpedia.org/property/profession'
p232
I8677
sS'http://dbpedia.org/property/resides'
p233
I244
sS'http://dbpedia.org/property/draftTeam'
p234
I9943
sS'http://dbpedia.org/property/termStart'
p235
I37
sS'http://dbpedia.org/property/\xd7\x90\xd7\xa8\xd7\xa6\xd7\x95\xd7\xaa\xd7\x9e\xd7\x92\xd7\x95\xd7\xa8\xd7\x99\xd7\x9d'
p236
I1751
sS'http://dbpedia.org/property/post1preceded'
p237
I250
sS'http://dbpedia.org/property/father'
p238
I12493
sS'http://dbpedia.org/property/uncles'
p239
I31
sS'http://dbpedia.org/property/archbishopOf'
p240
I23
sS'http://dbpedia.org/property/\xd7\x9b\xd7\x9c\xd7\x99\xd7\xa0\xd7\x92\xd7\x99\xd7\xa0\xd7\x94'
p241
I82
sS'http://dbpedia.org/property/ruClub'
p242
I322
sS'http://dbpedia.org/property/workInstitutions'
p243
I3296
sS'http://dbpedia.org/property/field'
p244
I14087
sS'http://dbpedia.org/property/reason'
p245
I188
sS'http://dbpedia.org/property/club'
p246
I19679
sS'http://dbpedia.org/property/president'
p247
I8039
sS'http://dbpedia.org/property/mainInterests'
p248
I1137
sS'http://dbpedia.org/property/choreographer'
p249
I160
sS'http://dbpedia.org/property/appointer'
p250
I2408
sS'http://dbpedia.org/property/church'
p251
I3043
sS'http://dbpedia.org/property/stat3label'
p252
I1655
sS'http://dbpedia.org/property/whaDraftTeam'
p253
I87
sS'http://dbpedia.org/property/homeTown'
p254
I2132
sS'http://dbpedia.org/property/style'
p255
I2251
sS'http://dbpedia.org/property/appointed'
p256
I644
sS'http://dbpedia.org/property/ruCurrentposition'
p257
I37
sS'http://dbpedia.org/property/teacher'
p258
I81
sS'http://dbpedia.org/property/confederation'
p259
I26
sS'http://dbpedia.org/property/calledBy'
p260
I24
sS'http://dbpedia.org/property/species'
p261
I977
sS'http://dbpedia.org/property/\xd7\x9e\xd7\xa7\xd7\x95\xd7\x9d\xd7\xa4\xd7\x98\xd7\x99\xd7\xa8\xd7\x94'
p262
I1353
sS'http://dbpedia.org/property/\xd7\xa1\xd7\x95\xd7\x92\xd7\x94'
p263
I635
sS'http://dbpedia.org/property/nominator'
p264
I594
sS'http://dbpedia.org/property/cfldraftedteam'
p265
I168
sS'http://dbpedia.org/property/coachteam'
p266
I138
sS'http://dbpedia.org/property/currentConference'
p267
I1017
sS'http://dbpedia.org/property/leader'
p268
I553
sS'http://dbpedia.org/property/organization'
p269
I1002
sS'http://dbpedia.org/property/grandfathers'
p270
I28
sS'http://dbpedia.org/property/vicepresident'
p271
I280
sS'http://dbpedia.org/property/moto2Manufacturers'
p272
I27
sS'http://dbpedia.org/property/counties'
p273
I2565
sS'http://dbpedia.org/property/prospectTeam'
p274
I307
sS'http://dbpedia.org/property/sisters'
p275
I160
sS'http://dbpedia.org/property/team'
p276
I17527
sS'http://dbpedia.org/property/playingTeam'
p277
I6581
sS'http://dbpedia.org/property/eyeColor'
p278
I35
sS'http://dbpedia.org/property/debutfor'
p279
I850
sS'http://dbpedia.org/property/siblings'
p280
I25
sS'http://dbpedia.org/property/state'
p281
I6255
sS'http://dbpedia.org/property/deathPlace'
p282
I112457
sS'http://dbpedia.org/property/ruProclubs'
p283
I2853
sS'http://dbpedia.org/property/format'
p284
I271
sS'http://dbpedia.org/property/archdiocese'
p285
I96
sS'http://dbpedia.org/property/institutions'
p286
I192
sS'http://dbpedia.org/property/bowling'
p287
I216
sS'http://dbpedia.org/property/influenced'
p288
I2877
sS'http://dbpedia.org/property/cteam'
p289
I583
sS'http://dbpedia.org/property/doctoralStudents'
p290
I2181
sS'http://dbpedia.org/property/relstyle'
p291
I617
sS'http://dbpedia.org/property/battles'
p292
I23068
sS'http://dbpedia.org/property/buried'
p293
I291
sS'http://dbpedia.org/property/influences'
p294
I5080
sS'http://dbpedia.org/property/deputy'
p295
I1068
sS'http://dbpedia.org/property/statlabel'
p296
I2041
sS'http://dbpedia.org/property/pmoySucceeded'
p297
I27
sS'http://dbpedia.org/property/ethnicity'
p298
I6729
sS'http://dbpedia.org/property/creator'
p299
I3431
sS'http://dbpedia.org/property/mission'
p300
I285
sS'http://dbpedia.org/property/significantAwards'
p301
I130
sS'http://dbpedia.org/property/\xd7\x9e\xd7\xa4\xd7\x9c\xd7\x92\xd7\x94'
p302
I440
sS'http://dbpedia.org/property/placeOfBirth'
p303
I340561
sS'http://dbpedia.org/property/stat1label'
p304
I9343
sS'http://dbpedia.org/property/majorwins'
p305
I31
sS'http://dbpedia.org/property/\xd7\x9e\xd7\xa7\xd7\x95\xd7\x9d\xd7\xa7\xd7\x91\xd7\x95\xd7\xa8\xd7\x94'
p306
I216
sS'http://dbpedia.org/property/\xd7\x94\xd7\xa7\xd7\x95\xd7\x93\xd7\x9d'
p307
I809
sS'http://dbpedia.org/property/daughters'
p308
I251
sS'http://dbpedia.org/property/team(s)_'
p309
I438
sS'http://dbpedia.org/property/extour'
p310
I1600
sS'http://dbpedia.org/property/\xd7\xa8\xd7\xa9\xd7\x99\xd7\x9e\xd7\x94'
p311
I380
sS'http://dbpedia.org/property/teamhonour'
p312
I122
sS'http://dbpedia.org/property/tour'
p313
I1210
sS'http://dbpedia.org/property/incumbent'
p314
I38
sS'http://dbpedia.org/property/commands'
p315
I6637
sS'http://dbpedia.org/property/notableworks'
p316
I277
sS'http://dbpedia.org/property/debutopponent'
p317
I479
sS'http://dbpedia.org/property/finalleague'
p318
I45
sS'http://dbpedia.org/property/years'
p319
I1232
sS'http://dbpedia.org/property/constituencyAm'
p320
I1314
sS'http://dbpedia.org/property/\xd7\xa2\xd7\x99\xd7\xa1\xd7\x95\xd7\xa7'
p321
I280
sS'http://dbpedia.org/property/placeOfBurial'
p322
I1348
sS'http://dbpedia.org/property/honorificPrefix'
p323
I9336
sS'http://dbpedia.org/property/minister'
p324
I183
sS'http://dbpedia.org/property/pastschools'
p325
I349
sS'http://dbpedia.org/property/home'
p326
I535
sS'http://dbpedia.org/property/as'
p327
I33
sS'http://dbpedia.org/property/premier'
p328
I829
sS'http://dbpedia.org/property/country'
p329
I4464
sS'http://dbpedia.org/property/formercoach'
p330
I522
sS'http://dbpedia.org/property/county'
p331
I23
sS'http://dbpedia.org/property/previousPost'
p332
I479
sS'http://dbpedia.org/property/race'
p333
I360
sS'http://dbpedia.org/property/\xd7\xa2\xd7\x99\xd7\xa8\xd7\x9c\xd7\x99\xd7\x93\xd7\x94'
p334
I2503
sS'http://dbpedia.org/property/ruTeama'
p335
I113
sS'http://dbpedia.org/property/house'
p336
I5221
sS'http://dbpedia.org/property/name'
p337
I4815
sS'http://dbpedia.org/property/successor'
p338
I59207
sS'http://dbpedia.org/property/citizenship'
p339
I4342
sS'http://dbpedia.org/property/regent'
p340
I529
sS'http://dbpedia.org/property/husband'
p341
I191
sS'http://dbpedia.org/property/formerTeams'
p342
I5118
sS'http://dbpedia.org/property/debutleague'
p343
I877
sS'http://dbpedia.org/property/league'
p344
I13771
sS'http://dbpedia.org/property/academicAdvisors'
p345
I315
sS'http://dbpedia.org/property/competitions'
p346
I254
sS'http://dbpedia.org/property/billed'
p347
I454
sS'http://dbpedia.org/property/ruSevensnationalteam'
p348
I27
sS'http://dbpedia.org/property/majorShrine'
p349
I35
sS'http://dbpedia.org/property/\xd7\xaa\xd7\x97\xd7\x95\xd7\x9e\xd7\x99\xd7\xa2\xd7\xa0\xd7\x99\xd7\x99\xd7\x9f'
p350
I54
sS'http://dbpedia.org/property/riding'
p351
I1272
sS'http://dbpedia.org/property/post2preceded'
p352
I34
sS'http://dbpedia.org/property/deathDate'
p353
I76
sS'http://dbpedia.org/property/\xd7\xa8\xd7\x90\xd7\x95'
p354
I255
sS'http://dbpedia.org/property/relatives'
p355
I5055
sS'http://dbpedia.org/property/fields'
p356
I6659
sS'http://dbpedia.org/property/beatifiedBy'
p357
I145
sS'http://dbpedia.org/property/primeminister'
p358
I6874
sS'http://dbpedia.org/property/formerchoreographer'
p359
I37
sS'http://dbpedia.org/property/brothers'
p360
I177
sS'http://dbpedia.org/property/\xd7\xa2\xd7\xa0\xd7\xa3\xd7\xa1\xd7\xa4\xd7\x95\xd7\xa8\xd7\x98'
p361
I30
sS'http://dbpedia.org/property/\xd7\xa4\xd7\xa8\xd7\xa1\xd7\x99\xd7\x9d\xd7\x95\xd7\x94\xd7\xa0\xd7\xa6\xd7\x97\xd7\x94'
p362
I36
sS'http://dbpedia.org/property/sport'
p363
I21116
sS'http://dbpedia.org/property/governorGeneral'
p364
I207
sS'http://dbpedia.org/property/\xd7\x9c\xd7\x90\xd7\x95\xd7\x9d'
p365
I184
sS'http://dbpedia.org/property/family'
p366
I2592
sS'http://dbpedia.org/property/currentTeam'
p367
I2688
sS'http://dbpedia.org/property/playerTeam'
p368
I4251
sS'http://dbpedia.org/property/headcoach'
p369
I21
sS'http://dbpedia.org/property/workInstitution'
p370
I3184
sS'http://dbpedia.org/property/allegiance'
p371
I7913
sS'http://dbpedia.org/property/previous'
p372
I48
sS'http://dbpedia.org/property/language'
p373
I1311
sS'http://dbpedia.org/property/constituencyMp'
p374
I5194
sS'http://dbpedia.org/property/nieces'
p375
I101
sS'http://dbpedia.org/property/creators'
p376
I3302
sS'http://dbpedia.org/property/veneratedIn'
p377
I2655
sS'http://dbpedia.org/property/proteams'
p378
I113
sS'http://dbpedia.org/property/highSchool'
p379
I4263
sS'http://dbpedia.org/property/britishleague'
p380
I25
sS'http://dbpedia.org/property/sons'
p381
I322
sS'http://dbpedia.org/property/succession'
p382
I2127
sS'http://dbpedia.org/property/college'
p383
I31320
sS'http://dbpedia.org/property/alongside'
p384
I3246
sS'http://dbpedia.org/property/nllDraftTeam'
p385
I25
sS'http://dbpedia.org/property/detainedAt'
p386
I39
sS'http://dbpedia.org/property/with'
p387
I4755
s.