(dp0
S'http://dbpedia.org/property/origin'
p1
I4534
sS'http://dbpedia.org/property/awards'
p2
I7512
sS'http://dbpedia.org/ontology/nationality'
p3
I38504
sS'http://dbpedia.org/property/coachTeam'
p4
I2610
sS'http://dbpedia.org/property/prospectLeague'
p5
I183
sS'http://dbpedia.org/property/movement'
p6
I1205
sS'http://dbpedia.org/property/nationality'
p7
I17952
sS'http://dbpedia.org/property/type'
p8
I362
sS'http://dbpedia.org/property/wife'
p9
I20
sS'http://dbpedia.org/ontology/mythology'
p10
I28
sS'http://dbpedia.org/property/dipstyle'
p11
I52
sS'http://dbpedia.org/ontology/predecessor'
p12
I12781
sS'http://dbpedia.org/property/constituency'
p13
I1917
sS'http://dbpedia.org/property/clubs'
p14
I46050
sS'http://dbpedia.org/property/branch'
p15
I4572
sS'http://dbpedia.org/property/deathCause'
p16
I900
sS'http://dbpedia.org/property/birthDate'
p17
I53
sS'http://dbpedia.org/property/playerPositions'
p18
I219
sS'http://dbpedia.org/property/conference'
p19
I185
sS'http://dbpedia.org/property/governor'
p20
I650
sS'http://dbpedia.org/property/partner'
p21
I122
sS'http://dbpedia.org/property/birthPlace'
p22
I150613
sS'http://dbpedia.org/property/predecessor'
p23
I19378
sS'http://dbpedia.org/property/teama'
p24
I994
sS'http://dbpedia.org/property/teamb'
p25
I286
sS'http://dbpedia.org/property/teamc'
p26
I39
sS'http://dbpedia.org/ontology/movement'
p27
I1179
sS'http://dbpedia.org/property/\xd7\x90\xd7\xa8\xd7\xa5\xd7\x9c\xd7\x99\xd7\x93\xd7\x94'
p28
I855
sS'http://dbpedia.org/ontology/managerClub'
p29
I5819
sS'http://dbpedia.org/property/nllTeam'
p30
I18
sS'http://dbpedia.org/property/publisher'
p31
I972
sS'http://dbpedia.org/property/offstyle'
p32
I25
sS'http://dbpedia.org/ontology/stateOfOrigin'
p33
I11951
sS'http://dbpedia.org/property/column'
p34
I4136
sS'http://dbpedia.org/ontology/president'
p35
I2146
sS'http://dbpedia.org/property/proteam'
p36
I240
sS'http://dbpedia.org/property/formerpartner'
p37
I125
sS'http://dbpedia.org/property/titles'
p38
I28
sS'http://dbpedia.org/property/conf'
p39
I607
sS'http://dbpedia.org/ontology/relative'
p40
I2140
sS'http://dbpedia.org/property/fightingOutOf'
p41
I149
sS'http://dbpedia.org/property/racquet'
p42
I36
sS'http://dbpedia.org/property/hometown'
p43
I325
sS'http://dbpedia.org/ontology/raceHorse'
p44
I39
sS'http://dbpedia.org/property/indivhonour'
p45
I29
sS'http://dbpedia.org/property/training'
p46
I848
sS'http://dbpedia.org/ontology/wikiPageWikiLink'
p47
I8730
sS'http://dbpedia.org/property/classification'
p48
I371
sS'http://dbpedia.org/property/strokes'
p49
I989
sS'http://dbpedia.org/property/\xd7\x9e\xd7\x93\xd7\x99\xd7\xa0\xd7\x94'
p50
I259
sS'http://dbpedia.org/ontology/associatedBand'
p51
I7271
sS'http://dbpedia.org/property/knownFor'
p52
I2502
sS'http://dbpedia.org/ontology/debutTeam'
p53
I9062
sS'http://dbpedia.org/property/almaMater'
p54
I22487
sS'http://dbpedia.org/ontology/militaryRank'
p55
I811
sS'http://dbpedia.org/property/electorate'
p56
I18
sS'http://dbpedia.org/property/occupation'
p57
I21042
sS'http://dbpedia.org/property/name'
p58
I1823
sS'http://dbpedia.org/ontology/team'
p59
I55012
sS'http://dbpedia.org/property/spouse'
p60
I7225
sS'http://dbpedia.org/property/originalteam'
p61
I743
sS'http://dbpedia.org/property/alliances'
p62
I465
sS'http://dbpedia.org/property/restingplace'
p63
I121
sS'http://dbpedia.org/property/employer'
p64
I1246
sS'http://dbpedia.org/ontology/associate'
p65
I143
sS'http://dbpedia.org/property/currenttraininglocations'
p66
I55
sS'http://dbpedia.org/property/currentposition'
p67
I81
sS'http://dbpedia.org/property/mother'
p68
I2178
sS'http://dbpedia.org/property/martialArt'
p69
I54
sS'http://dbpedia.org/property/third'
p70
I18
sS'http://dbpedia.org/property/title'
p71
I21986
sS'http://dbpedia.org/property/otherparty'
p72
I204
sS'http://dbpedia.org/property/chiefminister'
p73
I28
sS'http://dbpedia.org/ontology/sport'
p74
I450
sS'http://dbpedia.org/property/parents'
p75
I1541
sS'http://dbpedia.org/ontology/occupation'
p76
I58728
sS'http://dbpedia.org/property/placeOfDeath'
p77
I28451
sS'http://dbpedia.org/property/super'
p78
I26
sS'http://dbpedia.org/property/adminTeam'
p79
I80
sS'http://dbpedia.org/ontology/termPeriod'
p80
I18609
sS'http://dbpedia.org/property/religion'
p81
I11450
sS'http://dbpedia.org/ontology/race'
p82
I44
sS'http://dbpedia.org/property/relations'
p83
I965
sS'http://dbpedia.org/property/currentteam'
p84
I113
sS'http://dbpedia.org/property/1namedata'
p85
I90
sS'http://dbpedia.org/property/createdCardinalBy'
p86
I73
sS'http://xmlns.com/foaf/0.1/isPrimaryTopicOf'
p87
I435128
sS'http://dbpedia.org/property/consecratedBy'
p88
I208
sS'http://dbpedia.org/property/office'
p89
I5654
sS'http://dbpedia.org/ontology/residence'
p90
I14961
sS'http://dbpedia.org/property/institution'
p91
I17
sS'http://dbpedia.org/ontology/board'
p92
I15
sS'http://dbpedia.org/ontology/philosophicalSchool'
p93
I75
sS'http://dbpedia.org/property/beatifiedPlace'
p94
I40
sS'http://dbpedia.org/property/prizes'
p95
I89
sS'http://dbpedia.org/property/\xd7\x9e\xd7\xa7\xd7\x95\xd7\x9d\xd7\x9c\xd7\x99\xd7\x93\xd7\x94'
p96
I885
sS'http://dbpedia.org/ontology/college'
p97
I3997
sS'http://dbpedia.org/property/\xd7\x94\xd7\x91\xd7\x90'
p98
I51
sS'http://dbpedia.org/property/residence'
p99
I11462
sS'http://dbpedia.org/property/coach'
p100
I150
sS'http://dbpedia.org/property/currentclub'
p101
I23987
sS'http://dbpedia.org/ontology/restingPlace'
p102
I4068
sS'http://dbpedia.org/ontology/successor'
p103
I16151
sS'http://dbpedia.org/property/series'
p104
I675
sS'http://dbpedia.org/property/restingPlace'
p105
I1086
sS'http://dbpedia.org/ontology/prospectTeam'
p106
I79
sS'http://dbpedia.org/property/\xd7\x9e\xd7\x95\xd7\xa9\xd7\xa4\xd7\xa2\xd7\x99\xd7\x9d'
p107
I57
sS'http://dbpedia.org/property/genre'
p108
I13292
sS'http://dbpedia.org/property/\xd7\xa2\xd7\xa0\xd7\xa3\xd7\x9e\xd7\x93\xd7\xa2\xd7\x99'
p109
I189
sS'http://dbpedia.org/property/label'
p110
I4544
sS'http://dbpedia.org/property/ruPosition'
p111
I1809
sS'http://dbpedia.org/property/heya'
p112
I46
sS'http://dbpedia.org/property/gpTeams'
p113
I40
sS'http://dbpedia.org/property/highschool'
p114
I3437
sS'http://dbpedia.org/property/nationalteam'
p115
I20730
sS'http://dbpedia.org/property/playedFor'
p116
I2275
sS'http://dbpedia.org/property/aflstatlabel'
p117
I83
sS'http://dbpedia.org/property/lastagainst'
p118
I237
sS'http://dbpedia.org/property/honorificSuffix'
p119
I2745
sS'http://dbpedia.org/property/weapon'
p120
I43
sS'http://dbpedia.org/ontology/draftTeam'
p121
I3224
sS'http://dbpedia.org/property/lieutenant'
p122
I82
sS'http://dbpedia.org/property/cis'
p123
I18
sS'http://dbpedia.org/property/classes'
p124
I114
sS'http://dbpedia.org/property/succeeded'
p125
I2542
sS'http://dbpedia.org/ontology/otherParty'
p126
I408
sS'http://dbpedia.org/ontology/coach'
p127
I290
sS'http://dbpedia.org/ontology/placeOfBurial'
p128
I121
sS'http://dbpedia.org/property/instrument'
p129
I5255
sS'http://dbpedia.org/property/currentpositionplain'
p130
I33
sS'http://dbpedia.org/property/currentTitle'
p131
I101
sS'http://dbpedia.org/property/portrayer'
p132
I1448
sS'http://dbpedia.org/ontology/soundRecording'
p133
I110
sS'http://dbpedia.org/property/ruProvince'
p134
I500
sS'http://dbpedia.org/property/debutteam'
p135
I2646
sS'http://dbpedia.org/ontology/notableIdea'
p136
I54
sS'http://dbpedia.org/property/children'
p137
I1865
sS'http://dbpedia.org/property/careerPosition'
p138
I26
sS'http://dbpedia.org/property/education'
p139
I3627
sS'http://dbpedia.org/property/source'
p140
I118
sS'http://dbpedia.org/property/see'
p141
I524
sS'http://dbpedia.org/ontology/education'
p142
I4528
sS'http://dbpedia.org/property/prevSeries'
p143
I151
sS'http://dbpedia.org/property/dynasty'
p144
I69
sS'http://dbpedia.org/property/career'
p145
I157
sS'http://dbpedia.org/ontology/primeMinister'
p146
I1919
sS'http://dbpedia.org/property/\xd7\xaa\xd7\xa4\xd7\xa7\xd7\x99\xd7\x93\xd7\x9b\xd7\xa9\xd7\x97\xd7\xa7\xd7\x9f'
p147
I584
sS'http://dbpedia.org/property/debutagainst'
p148
I484
sS'http://dbpedia.org/property/issue'
p149
I1426
sS'http://dbpedia.org/ontology/league'
p150
I4516
sS'http://xmlns.com/foaf/0.1/depiction'
p151
I121160
sS'http://dbpedia.org/ontology/thumbnail'
p152
I121160
sS'http://dbpedia.org/ontology/ethnicity'
p153
I2309
sS'http://dbpedia.org/property/party'
p154
I21356
sS'http://dbpedia.org/property/\xd7\x96\xd7\xa8\xd7\x9d'
p155
I44
sS'http://dbpedia.org/property/workplaces'
p156
I2407
sS'http://dbpedia.org/property/weight'
p157
I125
sS'http://dbpedia.org/property/trainer'
p158
I266
sS'http://dbpedia.org/property/collegeteam'
p159
I364
sS'http://dbpedia.org/property/order'
p160
I910
sS'http://dbpedia.org/property/next'
p161
I51
sS'http://dbpedia.org/property/university'
p162
I502
sS'http://dbpedia.org/property/cteam'
p163
I23
sS'http://dbpedia.org/property/notableInstruments'
p164
I190
sS'http://dbpedia.org/property/nobleFamily'
p165
I397
sS'http://dbpedia.org/property/placeofburial'
p166
I892
sS'http://dbpedia.org/property/team'
p167
I6110
sS'http://dbpedia.org/property/currentSeries'
p168
I127
sS'http://dbpedia.org/ontology/lieutenant'
p169
I193
sS'http://dbpedia.org/ontology/position'
p170
I54806
sS'http://dbpedia.org/property/event'
p171
I1420
sS'http://dbpedia.org/property/after'
p172
I24430
sS'http://dbpedia.org/property/rank'
p173
I5845
sS'http://dbpedia.org/ontology/personFunction'
p174
I1368
sS'http://purl.org/dc/terms/subject'
p175
I435141
sS'http://dbpedia.org/property/managerclubs'
p176
I5706
sS'http://dbpedia.org/ontology/institution'
p177
I55
sS'http://dbpedia.org/property/height'
p178
I18
sS'http://dbpedia.org/property/\xd7\xa1\xd7\x99\xd7\xa2\xd7\x95\xd7\xaa'
p179
I138
sS'http://dbpedia.org/property/lieutenantGovernor'
p180
I85
sS'http://dbpedia.org/property/repteam'
p181
I102
sS'http://dbpedia.org/property/preceded'
p182
I2711
sS'http://dbpedia.org/property/debutstadium'
p183
I42
sS'http://dbpedia.org/property/otherPost'
p184
I24
sS'http://dbpedia.org/property/\xd7\x9e\xd7\x95\xd7\xa2\xd7\x93\xd7\x95\xd7\xa0\xd7\x99\xd7\xa0\xd7\x95\xd7\xa2\xd7\xa8'
p185
I18
sS'http://dbpedia.org/property/data'
p186
I28
sS'http://dbpedia.org/property/stat2label'
p187
I125
sS'http://dbpedia.org/property/doctoralAdvisor'
p188
I1595
sS'http://dbpedia.org/property/lastfor'
p189
I153
sS'http://dbpedia.org/ontology/recordLabel'
p190
I6255
sS'http://dbpedia.org/property/laterwork'
p191
I21
sS'http://dbpedia.org/ontology/currentPartner'
p192
I53
sS'http://dbpedia.org/property/monarch'
p193
I1128
sS'http://dbpedia.org/property/unit'
p194
I1514
sS'http://dbpedia.org/ontology/militaryUnit'
p195
I3024
sS'http://dbpedia.org/property/shortDescription'
p196
I2540
sS'http://dbpedia.org/property/youthclubs'
p197
I20635
sS'http://dbpedia.org/property/bowlname'
p198
I55
sS'http://dbpedia.org/property/associatedActs'
p199
I5451
sS'http://dbpedia.org/property/schoolTradition'
p200
I123
sS'http://dbpedia.org/property/draftTeamPba'
p201
I31
sS'http://dbpedia.org/property/\xd7\x9e\xd7\xa9\xd7\xa4\xd7\x99\xd7\xa2\xd7\x99\xd7\x9d'
p202
I65
sS'http://dbpedia.org/property/district'
p203
I66
sS'http://dbpedia.org/property/ruNationalteam'
p204
I1107
sS'http://dbpedia.org/property/position'
p205
I54144
sS'http://dbpedia.org/ontology/notableWork'
p206
I717
sS'http://dbpedia.org/property/weightClass'
p207
I523
sS'http://dbpedia.org/property/influencedBy'
p208
I93
sS'http://dbpedia.org/property/diocese'
p209
I439
sS'http://dbpedia.org/property/formertraininglocations'
p210
I25
sS'http://dbpedia.org/property/introducer'
p211
I79
sS'http://dbpedia.org/property/before'
p212
I24341
sS'http://dbpedia.org/ontology/hometown'
p213
I7764
sS'http://dbpedia.org/property/workInstitution'
p214
I994
sS'http://dbpedia.org/property/pmoyPreceded'
p215
I17
sS'http://dbpedia.org/property/school'
p216
I1142
sS'http://dbpedia.org/property/ethnicity'
p217
I2075
sS'http://dbpedia.org/property/candidate'
p218
I54
sS'http://dbpedia.org/property/skip'
p219
I16
sS'http://dbpedia.org/ontology/country'
p220
I16827
sS'http://dbpedia.org/property/region'
p221
I52
sS'http://dbpedia.org/property/discipline'
p222
I97
sS'http://dbpedia.org/property/burialPlace'
p223
I63
sS'http://dbpedia.org/ontology/currentMember'
p224
I38
sS'http://dbpedia.org/property/ruAmateurclubs'
p225
I243
sS'http://dbpedia.org/property/agent'
p226
I58
sS'http://dbpedia.org/ontology/party'
p227
I22896
sS'http://dbpedia.org/ontology/highschool'
p228
I495
sS'http://dbpedia.org/property/finalteam'
p229
I2024
sS'http://dbpedia.org/property/profession'
p230
I2766
sS'http://dbpedia.org/ontology/partner'
p231
I60
sS'http://dbpedia.org/property/draftTeam'
p232
I3193
sS'http://dbpedia.org/property/\xd7\x90\xd7\xa8\xd7\xa6\xd7\x95\xd7\xaa\xd7\x9e\xd7\x92\xd7\x95\xd7\xa8\xd7\x99\xd7\x9d'
p233
I256
sS'http://dbpedia.org/ontology/lastAppearance'
p234
I263
sS'http://dbpedia.org/property/father'
p235
I3587
sS'http://dbpedia.org/ontology/majorShrine'
p236
I26
sS'http://dbpedia.org/property/ruClub'
p237
I49
sS'http://dbpedia.org/property/workInstitutions'
p238
I915
sS'http://dbpedia.org/ontology/televisionSeries'
p239
I592
sS'http://dbpedia.org/ontology/beatifiedBy'
p240
I44
sS'http://dbpedia.org/property/field'
p241
I4264
sS'http://dbpedia.org/ontology/deathCause'
p242
I1137
sS'http://dbpedia.org/property/club'
p243
I6853
sS'http://dbpedia.org/property/president'
p244
I2221
sS'http://dbpedia.org/ontology/vicePresident'
p245
I45
sS'http://dbpedia.org/property/mainInterests'
p246
I113
sS'http://dbpedia.org/property/choreographer'
p247
I35
sS'http://dbpedia.org/property/appointer'
p248
I389
sS'http://dbpedia.org/property/church'
p249
I827
sS'http://dbpedia.org/property/stat3label'
p250
I392
sS'http://dbpedia.org/ontology/relation'
p251
I1377
sS'http://dbpedia.org/property/homeTown'
p252
I430
sS'http://dbpedia.org/property/style'
p253
I538
sS'http://dbpedia.org/property/appointed'
p254
I44
sS'http://dbpedia.org/property/teacher'
p255
I18
sS'http://dbpedia.org/property/species'
p256
I108
sS'http://dbpedia.org/property/\xd7\x9e\xd7\xa7\xd7\x95\xd7\x9d\xd7\xa4\xd7\x98\xd7\x99\xd7\xa8\xd7\x94'
p257
I190
sS'http://dbpedia.org/ontology/award'
p258
I10940
sS'http://dbpedia.org/property/\xd7\xa1\xd7\x95\xd7\x92\xd7\x94'
p259
I57
sS'http://dbpedia.org/property/cfldraftedteam'
p260
I15
sS'http://dbpedia.org/ontology/battle'
p261
I7635
sS'http://dbpedia.org/property/currentConference'
p262
I225
sS'http://www.w3.org/2002/07/owl#differentFrom'
p263
I2570
sS'http://dbpedia.org/ontology/militaryBranch'
p264
I7108
sS'http://dbpedia.org/property/organization'
p265
I151
sS'http://dbpedia.org/ontology/child'
p266
I2681
sS'http://dbpedia.org/property/counties'
p267
I798
sS'http://dbpedia.org/property/prospectTeam'
p268
I79
sS'http://dbpedia.org/property/sisters'
p269
I19
sS'http://dbpedia.org/ontology/monarch'
p270
I1141
sS'http://dbpedia.org/property/playingTeam'
p271
I2188
sS'http://dbpedia.org/property/debutfor'
p272
I234
sS'http://dbpedia.org/property/nephews'
p273
I18
sS'http://dbpedia.org/property/state'
p274
I1592
sS'http://dbpedia.org/property/deathPlace'
p275
I34794
sS'http://dbpedia.org/property/ruProclubs'
p276
I950
sS'http://dbpedia.org/property/format'
p277
I44
sS'http://dbpedia.org/ontology/region'
p278
I6435
sS'http://dbpedia.org/ontology/formerCoach'
p279
I219
sS'http://dbpedia.org/property/institutions'
p280
I28
sS'http://dbpedia.org/property/influenced'
p281
I366
sS'http://dbpedia.org/ontology/almaMater'
p282
I23477
sS'http://dbpedia.org/property/doctoralStudents'
p283
I333
sS'http://dbpedia.org/ontology/prospectLeague'
p284
I200
sS'http://dbpedia.org/property/battles'
p285
I6921
sS'http://dbpedia.org/ontology/field'
p286
I7187
sS'http://dbpedia.org/ontology/portrayer'
p287
I637
sS'http://dbpedia.org/property/buried'
p288
I32
sS'http://dbpedia.org/property/influences'
p289
I1437
sS'http://dbpedia.org/ontology/employer'
p290
I1503
sS'http://dbpedia.org/ontology/mainInterest'
p291
I146
sS'http://dbpedia.org/ontology/governor'
p292
I658
sS'http://dbpedia.org/property/deputy'
p293
I83
sS'http://dbpedia.org/property/statlabel'
p294
I478
sS'http://dbpedia.org/property/pmoySucceeded'
p295
I17
sS'http://dbpedia.org/ontology/knownFor'
p296
I7324
sS'http://dbpedia.org/property/creator'
p297
I969
sS'http://dbpedia.org/ontology/veneratedIn'
p298
I726
sS'http://dbpedia.org/ontology/formerPartner'
p299
I142
sS'http://dbpedia.org/ontology/choreographer'
p300
I67
sS'http://dbpedia.org/property/\xd7\x9e\xd7\xa4\xd7\x9c\xd7\x92\xd7\x94'
p301
I69
sS'http://dbpedia.org/property/placeOfBirth'
p302
I111024
sS'http://dbpedia.org/property/stat1label'
p303
I2856
sS'http://dbpedia.org/property/\xd7\x9e\xd7\xa7\xd7\x95\xd7\x9d\xd7\xa7\xd7\x91\xd7\x95\xd7\xa8\xd7\x94'
p304
I44
sS'http://dbpedia.org/property/\xd7\x94\xd7\xa7\xd7\x95\xd7\x93\xd7\x9d'
p305
I51
sS'http://dbpedia.org/property/daughters'
p306
I17
sS'http://dbpedia.org/ontology/club'
p307
I645
sS'http://dbpedia.org/property/extour'
p308
I269
sS'http://dbpedia.org/property/\xd7\xa8\xd7\xa9\xd7\x99\xd7\x9e\xd7\x94'
p309
I42
sS'http://dbpedia.org/property/teamhonour'
p310
I53
sS'http://dbpedia.org/property/tour'
p311
I118
sS'http://dbpedia.org/ontology/religion'
p312
I10361
sS'http://dbpedia.org/ontology/profession'
p313
I3289
sS'http://www.w3.org/2000/01/rdf-schema#seeAlso'
p314
I1493
sS'http://dbpedia.org/property/commands'
p315
I2025
sS'http://dbpedia.org/property/debutopponent'
p316
I90
sS'http://dbpedia.org/property/finalleague'
p317
I18
sS'http://dbpedia.org/property/years'
p318
I46
sS'http://dbpedia.org/property/constituencyAm'
p319
I223
sS'http://dbpedia.org/property/\xd7\xa2\xd7\x99\xd7\xa1\xd7\x95\xd7\xa7'
p320
I41
sS'http://dbpedia.org/property/placeOfBurial'
p321
I70
sS'http://dbpedia.org/property/honorificPrefix'
p322
I2501
sS'http://dbpedia.org/ontology/beatifiedPlace'
p323
I41
sS'http://dbpedia.org/property/minister'
p324
I68
sS'http://dbpedia.org/property/pastschools'
p325
I168
sS'http://dbpedia.org/property/home'
p326
I20
sS'http://dbpedia.org/ontology/formerChoreographer'
p327
I56
sS'http://dbpedia.org/property/premier'
p328
I35
sS'http://dbpedia.org/property/country'
p329
I1562
sS'http://dbpedia.org/ontology/billed'
p330
I31
sS'http://dbpedia.org/property/formercoach'
p331
I49
sS'http://dbpedia.org/property/previousPost'
p332
I81
sS'http://dbpedia.org/property/succeeding'
p333
I17
sS'http://dbpedia.org/ontology/formerTeam'
p334
I10756
sS'http://dbpedia.org/property/race'
p335
I41
sS'http://dbpedia.org/ontology/deathPlace'
p336
I63903
sS'http://dbpedia.org/property/\xd7\xa2\xd7\x99\xd7\xa8\xd7\x9c\xd7\x99\xd7\x93\xd7\x94'
p337
I460
sS'http://dbpedia.org/ontology/genre'
p338
I14531
sS'http://dbpedia.org/property/ruTeama'
p339
I25
sS'http://dbpedia.org/property/proteams'
p340
I62
sS'http://dbpedia.org/ontology/birthPlace'
p341
I226938
sS'http://dbpedia.org/ontology/citizenship'
p342
I1767
sS'http://dbpedia.org/property/successor'
p343
I17069
sS'http://dbpedia.org/ontology/trainer'
p344
I334
sS'http://dbpedia.org/ontology/influenced'
p345
I459
sS'http://dbpedia.org/ontology/training'
p346
I1138
sS'http://dbpedia.org/property/citizenship'
p347
I1428
sS'http://dbpedia.org/property/regent'
p348
I43
sS'http://dbpedia.org/property/husband'
p349
I20
sS'http://dbpedia.org/property/formerTeams'
p350
I1698
sS'http://dbpedia.org/ontology/associatedMusicalArtist'
p351
I7271
sS'http://dbpedia.org/ontology/parent'
p352
I5477
sS'http://dbpedia.org/property/debutleague'
p353
I241
sS'http://dbpedia.org/property/league'
p354
I4775
sS'http://dbpedia.org/ontology/spouse'
p355
I8009
sS'http://dbpedia.org/ontology/instrument'
p356
I6483
sS'http://dbpedia.org/property/competitions'
p357
I141
sS'http://dbpedia.org/property/billed'
p358
I22
sS'http://www.w3.org/1999/02/22-rdf-syntax-ns#type'
p359
I436775
sS'http://dbpedia.org/ontology/school'
p360
I1486
sS'http://dbpedia.org/property/\xd7\xaa\xd7\x97\xd7\x95\xd7\x9e\xd7\x99\xd7\xa2\xd7\xa0\xd7\x99\xd7\x99\xd7\x9f'
p361
I54
sS'http://dbpedia.org/property/riding'
p362
I156
sS'http://dbpedia.org/property/\xd7\xa8\xd7\x90\xd7\x95'
p363
I56
sS'http://dbpedia.org/property/relatives'
p364
I1581
sS'http://dbpedia.org/property/fields'
p365
I2167
sS'http://dbpedia.org/property/beatifiedBy'
p366
I18
sS'http://dbpedia.org/property/primeminister'
p367
I1901
sS'http://dbpedia.org/property/formerchoreographer'
p368
I29
sS'http://dbpedia.org/property/brothers'
p369
I19
sS'http://dbpedia.org/ontology/doctoralStudent'
p370
I421
sS'http://dbpedia.org/ontology/deputy'
p371
I82
sS'http://dbpedia.org/property/alongside'
p372
I608
sS'http://dbpedia.org/ontology/influencedBy'
p373
I1956
sS'http://dbpedia.org/property/governorGeneral'
p374
I65
sS'http://dbpedia.org/property/\xd7\x9c\xd7\x90\xd7\x95\xd7\x9d'
p375
I48
sS'http://dbpedia.org/property/family'
p376
I675
sS'http://dbpedia.org/property/currentTeam'
p377
I879
sS'http://dbpedia.org/ontology/university'
p378
I375
sS'http://dbpedia.org/property/playerTeam'
p379
I1455
sS'http://dbpedia.org/ontology/careerStation'
p380
I44952
sS'http://dbpedia.org/property/relstyle'
p381
I52
sS'http://dbpedia.org/property/allegiance'
p382
I2528
sS'http://dbpedia.org/property/previous'
p383
I47
sS'http://dbpedia.org/property/language'
p384
I253
sS'http://dbpedia.org/property/constituencyMp'
p385
I1687
sS'http://dbpedia.org/ontology/creator'
p386
I1840
sS'http://dbpedia.org/property/creators'
p387
I771
sS'http://dbpedia.org/property/veneratedIn'
p388
I711
sS'http://dbpedia.org/property/house'
p389
I1418
sS'http://dbpedia.org/property/highSchool'
p390
I1476
sS'http://dbpedia.org/ontology/doctoralAdvisor'
p391
I1659
sS'http://dbpedia.org/property/sons'
p392
I41
sS'http://dbpedia.org/ontology/language'
p393
I289
sS'http://dbpedia.org/property/succession'
p394
I396
sS'http://dbpedia.org/property/college'
p395
I10886
sS'http://dbpedia.org/property/sport'
p396
I9997
sS'http://dbpedia.org/ontology/appointer'
p397
I121
sS'http://dbpedia.org/ontology/series'
p398
I487
sS'http://dbpedia.org/property/with'
p399
I1395
s.