(dp0
S'http://dbpedia.org/ontology/recordLabel'
p1
I993
sS'http://dbpedia.org/ontology/mainInterest'
p2
I73
sS'http://dbpedia.org/ontology/governor'
p3
I133
sS'http://dbpedia.org/ontology/club'
p4
I80
sS'http://dbpedia.org/ontology/previousWork'
p5
I39
sS'http://dbpedia.org/ontology/knownFor'
p6
I1057
sS'http://dbpedia.org/ontology/leaderFunction'
p7
I6
sS'http://dbpedia.org/ontology/veneratedIn'
p8
I64
sS'http://dbpedia.org/ontology/type'
p9
I73
sS'http://dbpedia.org/ontology/formerPartner'
p10
I32
sS'http://dbpedia.org/ontology/termPeriod'
p11
I2713
sS'http://dbpedia.org/ontology/currentPartner'
p12
I16
sS'http://dbpedia.org/ontology/origin'
p13
I5
sS'http://dbpedia.org/ontology/format'
p14
I15
sS'http://dbpedia.org/ontology/picture'
p15
I3
sS'http://dbpedia.org/ontology/canonizedPlace'
p16
I13
sS'http://dbpedia.org/ontology/openingTheme'
p17
I5
sS'http://dbpedia.org/ontology/militaryUnit'
p18
I313
sS'http://dbpedia.org/ontology/restingPlacePosition'
p19
I8
sS'http://dbpedia.org/ontology/choreographer'
p20
I19
sS'http://dbpedia.org/ontology/nationality'
p21
I4169
sS'http://dbpedia.org/ontology/prospectLeague'
p22
I27
sS'http://dbpedia.org/ontology/occupation'
p23
I7606
sS'http://dbpedia.org/ontology/damsire'
p24
I9
sS'http://dbpedia.org/ontology/musicComposer'
p25
I24
sS'http://dbpedia.org/ontology/academicAdvisor'
p26
I42
sS'http://dbpedia.org/ontology/narrator'
p27
I7
sS'http://dbpedia.org/ontology/residence'
p28
I1894
sS'http://dbpedia.org/ontology/mythology'
p29
I10
sS'http://dbpedia.org/ontology/board'
p30
I33
sS'http://dbpedia.org/ontology/incumbent'
p31
I2
sS'http://dbpedia.org/ontology/notableWork'
p32
I185
sS'http://dbpedia.org/ontology/philosophicalSchool'
p33
I62
sS'http://dbpedia.org/ontology/race'
p34
I40
sS'http://dbpedia.org/ontology/programmeFormat'
p35
I8
sS'http://dbpedia.org/ontology/predecessor'
p36
I1912
sS'http://dbpedia.org/ontology/governorGeneral'
p37
I12
sS'http://dbpedia.org/ontology/state'
p38
I6
sS'http://dbpedia.org/ontology/college'
p39
I415
sS'http://dbpedia.org/ontology/location'
p40
I125
sS'http://dbpedia.org/ontology/academicDiscipline'
p41
I7
sS'http://dbpedia.org/ontology/era'
p42
I50
sS'http://dbpedia.org/ontology/artist'
p43
I23
sS'http://dbpedia.org/ontology/hometown'
p44
I1280
sS'http://dbpedia.org/ontology/restingPlace'
p45
I663
sS'http://dbpedia.org/ontology/successor'
p46
I2552
sS'http://dbpedia.org/ontology/religion'
p47
I1121
sS'http://dbpedia.org/ontology/associate'
p48
I62
sS'http://dbpedia.org/ontology/profession'
p49
I401
sS'http://dbpedia.org/ontology/taoiseach'
p50
I11
sS'http://dbpedia.org/ontology/basedOn'
p51
I6
sS'http://dbpedia.org/ontology/whaDraftTeam'
p52
I17
sS'http://dbpedia.org/ontology/musicalArtist'
p53
I5
sS'http://dbpedia.org/ontology/foundationPlace'
p54
I19
sS'http://dbpedia.org/ontology/owningCompany'
p55
I8
sS'http://dbpedia.org/ontology/president'
p56
I377
sS'http://dbpedia.org/ontology/editor'
p57
I3
sS'http://dbpedia.org/ontology/phylum'
p58
I13
sS'http://dbpedia.org/ontology/industry'
p59
I61
sS'http://dbpedia.org/ontology/producer'
p60
I54
sS'http://dbpedia.org/ontology/campus'
p61
I2
sS'http://dbpedia.org/ontology/firstWin'
p62
I6
sS'http://dbpedia.org/ontology/country'
p63
I2114
sS'http://dbpedia.org/ontology/beatifiedPlace'
p64
I17
sS'http://dbpedia.org/ontology/locationCountry'
p65
I49
sS'http://dbpedia.org/ontology/draftTeam'
p66
I431
sS'http://dbpedia.org/ontology/currentMember'
p67
I9
sS'http://dbpedia.org/ontology/formerChoreographer'
p68
I19
sS'http://dbpedia.org/ontology/license'
p69
I16
sS'http://dbpedia.org/ontology/bandMember'
p70
I4
sS'http://dbpedia.org/ontology/subsequentWork'
p71
I30
sS'http://dbpedia.org/ontology/writer'
p72
I30
sS'http://dbpedia.org/ontology/related'
p73
I5
sS'http://dbpedia.org/ontology/affiliation'
p74
I7
sS'http://dbpedia.org/ontology/billed'
p75
I39
sS'http://dbpedia.org/ontology/regionServed'
p76
I21
sS'http://dbpedia.org/ontology/manufacturer'
p77
I12
sS'http://dbpedia.org/ontology/discipline'
p78
I35
sS'http://dbpedia.org/ontology/order'
p79
I4
sS'http://dbpedia.org/ontology/significantProject'
p80
I33
sS'http://dbpedia.org/ontology/movement'
p81
I210
sS'http://dbpedia.org/ontology/party'
p82
I3046
sS'http://dbpedia.org/ontology/highschool'
p83
I203
sS'http://dbpedia.org/ontology/managerClub'
p84
I685
sS'http://dbpedia.org/ontology/formerTeam'
p85
I1251
sS'http://dbpedia.org/ontology/engine'
p86
I3
sS'http://dbpedia.org/ontology/deathPlace'
p87
I11581
sS'http://dbpedia.org/ontology/parentCompany'
p88
I21
sS'http://dbpedia.org/ontology/partner'
p89
I79
sS'http://dbpedia.org/ontology/composer'
p90
I18
sS'http://dbpedia.org/ontology/otherParty'
p91
I157
sS'http://dbpedia.org/ontology/cinematography'
p92
I17
sS'http://dbpedia.org/ontology/coach'
p93
I39
sS'http://dbpedia.org/ontology/placeOfBurial'
p94
I48
sS'http://dbpedia.org/ontology/nationalTeam'
p95
I32
sS'http://dbpedia.org/ontology/birthPlace'
p96
I32234
sS'http://dbpedia.org/ontology/sire'
p97
I12
sS'http://dbpedia.org/ontology/formerBandMember'
p98
I3
sS'http://dbpedia.org/ontology/citizenship'
p99
I219
sS'http://dbpedia.org/ontology/keyPerson'
p100
I26
sS'http://dbpedia.org/ontology/trainer'
p101
I87
sS'http://dbpedia.org/ontology/influenced'
p102
I180
sS'http://dbpedia.org/ontology/training'
p103
I158
sS'http://dbpedia.org/ontology/publisher'
p104
I26
sS'http://dbpedia.org/ontology/sportCountry'
p105
I4
sS'http://dbpedia.org/ontology/colour'
p106
I15
sS'http://dbpedia.org/ontology/stateOfOrigin'
p107
I1073
sS'http://dbpedia.org/ontology/operatingSystem'
p108
I9
sS'http://dbpedia.org/ontology/event'
p109
I3
sS'http://dbpedia.org/ontology/lastAppearance'
p110
I62
sS'http://dbpedia.org/ontology/associatedMusicalArtist'
p111
I1270
sS'http://dbpedia.org/ontology/majorShrine'
p112
I38
sS'http://dbpedia.org/ontology/parent'
p113
I719
sS'http://dbpedia.org/ontology/associatedAct'
p114
I8
sS'http://dbpedia.org/ontology/soundRecording'
p115
I111
sS'http://dbpedia.org/ontology/company'
p116
I27
sS'http://dbpedia.org/ontology/gender'
p117
I13
sS'http://dbpedia.org/ontology/spouse'
p118
I1320
sS'http://dbpedia.org/ontology/class'
p119
I24
sS'http://dbpedia.org/ontology/televisionSeries'
p120
I67
sS'http://dbpedia.org/ontology/distributor'
p121
I47
sS'http://dbpedia.org/ontology/instrument'
p122
I988
sS'http://dbpedia.org/ontology/significantBuilding'
p123
I72
sS'http://dbpedia.org/ontology/beatifiedBy'
p124
I23
sS'http://dbpedia.org/ontology/capital'
p125
I3
sS'http://dbpedia.org/ontology/school'
p126
I131
sS'http://dbpedia.org/ontology/nearestCity'
p127
I2
sS'http://dbpedia.org/ontology/education'
p128
I545
sS'http://dbpedia.org/ontology/channel'
p129
I10
sS'http://dbpedia.org/ontology/family'
p130
I12
sS'http://dbpedia.org/ontology/relative'
p131
I352
sS'http://dbpedia.org/ontology/deathCause'
p132
I213
sS'http://dbpedia.org/ontology/species'
p133
I37
sS'http://dbpedia.org/ontology/primeMinister'
p134
I391
sS'http://dbpedia.org/ontology/agency'
p135
I10
sS'http://dbpedia.org/ontology/vicePresident'
p136
I29
sS'http://dbpedia.org/ontology/mission'
p137
I33
sS'http://dbpedia.org/ontology/league'
p138
I439
sS'http://dbpedia.org/ontology/notableIdea'
p139
I31
sS'http://dbpedia.org/ontology/foundedBy'
p140
I6
sS'http://dbpedia.org/ontology/appointer'
p141
I50
sS'http://dbpedia.org/ontology/relation'
p142
I239
sS'http://dbpedia.org/ontology/thumbnail'
p143
I20219
sS'http://dbpedia.org/ontology/city'
p144
I22
sS'http://dbpedia.org/ontology/raceHorse'
p145
I24
sS'http://dbpedia.org/ontology/prospectTeam'
p146
I18
sS'http://dbpedia.org/ontology/ethnicity'
p147
I175
sS'http://dbpedia.org/ontology/starring'
p148
I52
sS'http://dbpedia.org/ontology/opponent'
p149
I8
sS'http://dbpedia.org/ontology/literaryGenre'
p150
I5
sS'http://dbpedia.org/ontology/wikiPageWikiLink'
p151
I56296
sS'http://dbpedia.org/ontology/network'
p152
I30
sS'http://dbpedia.org/ontology/owner'
p153
I24
sS'http://dbpedia.org/ontology/governmentType'
p154
I2
sS'http://dbpedia.org/ontology/doctoralStudent'
p155
I132
sS'http://dbpedia.org/ontology/associatedBand'
p156
I1270
sS'http://dbpedia.org/ontology/award'
p157
I1479
sS'http://dbpedia.org/ontology/deputy'
p158
I65
sS'http://dbpedia.org/ontology/debutTeam'
p159
I795
sS'http://dbpedia.org/ontology/influencedBy'
p160
I377
sS'http://dbpedia.org/ontology/militaryRank'
p161
I137
sS'http://dbpedia.org/ontology/nonFictionSubject'
p162
I2
sS'http://dbpedia.org/ontology/leader'
p163
I2
sS'http://dbpedia.org/ontology/wikiPageRedirects'
p164
I105
sS'http://dbpedia.org/ontology/breeder'
p165
I9
sS'http://dbpedia.org/ontology/executiveProducer'
p166
I20
sS'http://dbpedia.org/ontology/university'
p167
I57
sS'http://dbpedia.org/ontology/musicalBand'
p168
I7
sS'http://dbpedia.org/ontology/team'
p169
I5409
sS'http://dbpedia.org/ontology/battle'
p170
I1040
sS'http://dbpedia.org/ontology/editing'
p171
I8
sS'http://dbpedia.org/ontology/militaryBranch'
p172
I913
sS'http://dbpedia.org/ontology/director'
p173
I49
sS'http://dbpedia.org/ontology/genus'
p174
I16
sS'http://dbpedia.org/ontology/presenter'
p175
I5
sS'http://dbpedia.org/ontology/child'
p176
I504
sS'http://dbpedia.org/ontology/position'
p177
I5238
sS'http://dbpedia.org/ontology/product'
p178
I34
sS'http://dbpedia.org/ontology/grandsire'
p179
I11
sS'http://dbpedia.org/ontology/canonizedBy'
p180
I29
sS'http://dbpedia.org/ontology/binomialAuthority'
p181
I14
sS'http://dbpedia.org/ontology/monarch'
p182
I225
sS'http://dbpedia.org/ontology/notableStudent'
p183
I47
sS'http://dbpedia.org/ontology/wikiPageDisambiguates'
p184
I20
sS'http://dbpedia.org/ontology/personFunction'
p185
I184
sS'http://dbpedia.org/ontology/creator'
p186
I361
sS'http://dbpedia.org/ontology/kingdom'
p187
I15
sS'http://dbpedia.org/ontology/chancellor'
p188
I8
sS'http://dbpedia.org/ontology/programmingLanguage'
p189
I12
sS'http://dbpedia.org/ontology/author'
p190
I25
sS'http://dbpedia.org/ontology/voice'
p191
I64
sS'http://dbpedia.org/ontology/lastWin'
p192
I6
sS'http://dbpedia.org/ontology/lastRace'
p193
I34
sS'http://dbpedia.org/ontology/bodyDiscovered'
p194
I3
sS'http://dbpedia.org/ontology/honours'
p195
I15
sS'http://dbpedia.org/ontology/headquarter'
p196
I17
sS'http://dbpedia.org/ontology/field'
p197
I1091
sS'http://dbpedia.org/ontology/firstRace'
p198
I38
sS'http://dbpedia.org/ontology/doctoralAdvisor'
p199
I251
sS'http://dbpedia.org/ontology/region'
p200
I922
sS'http://dbpedia.org/ontology/formerCoach'
p201
I40
sS'http://dbpedia.org/ontology/language'
p202
I87
sS'http://dbpedia.org/ontology/broadcastArea'
p203
I16
sS'http://dbpedia.org/ontology/broadcastNetwork'
p204
I2
sS'http://dbpedia.org/ontology/institution'
p205
I48
sS'http://dbpedia.org/ontology/developer'
p206
I12
sS'http://dbpedia.org/ontology/almaMater'
p207
I3355
sS'http://dbpedia.org/ontology/careerStation'
p208
I4490
sS'http://dbpedia.org/ontology/album'
p209
I3
sS'http://dbpedia.org/ontology/lieutenant'
p210
I68
sS'http://dbpedia.org/ontology/sport'
p211
I125
sS'http://dbpedia.org/ontology/builder'
p212
I5
sS'http://dbpedia.org/ontology/series'
p213
I130
sS'http://dbpedia.org/ontology/portrayer'
p214
I134
sS'http://dbpedia.org/ontology/locationCity'
p215
I32
sS'http://dbpedia.org/ontology/genre'
p216
I2550
sS'http://dbpedia.org/ontology/employer'
p217
I190
s.