(dp0
S'http://dbpedia.org/property/stat2label'
p1
(dp2
S'diff'
p3
I72
sS'miss'
p4
I23
sS'tot'
p5
I1974
ssS'http://dbpedia.org/property/doctoralAdvisor'
p6
(dp7
g3
I6
sg4
I1812
sg5
I188
ssS'http://dbpedia.org/property/lastfor'
p8
(dp9
g3
I66
sg4
I35
sg5
I1299
ssS'http://dbpedia.org/property/awards'
p10
(dp11
g3
I154
sg4
I1337
sg5
I444
ssS'http://dbpedia.org/property/deputy'
p12
(dp13
g3
I23
sg4
I1285
sg5
I258
ssS'http://dbpedia.org/property/statlabel'
p14
(dp15
g3
I901
sg4
I55
sg5
I1946
ssS'http://dbpedia.org/property/event'
p16
(dp17
g3
I133
sg4
I127
sg5
I1188
ssS'http://dbpedia.org/property/ethnicity'
p18
(dp19
g3
I186
sg4
I1273
sg5
I727
ssS'http://dbpedia.org/property/creator'
p20
(dp21
g3
I70
sg4
I1208
sg5
I792
ssS'http://dbpedia.org/property/monarch'
p22
(dp23
g3
I3
sg4
I1974
sg5
I26
ssS'http://dbpedia.org/property/unit'
p24
(dp25
g3
I3
sg4
I1708
sg5
I153
ssS'http://dbpedia.org/property/nationalteam'
p26
(dp27
g3
I31
sg4
I1523
sg5
I426
ssS'http://dbpedia.org/property/relations'
p28
(dp29
g3
I13
sg4
I1772
sg5
I216
ssS'http://dbpedia.org/property/premier'
p30
(dp31
g3
I130
sg4
I26
sg5
I1050
ssS'http://dbpedia.org/property/shortDescription'
p32
(dp33
g3
I0
sg4
I1904
sg5
I0
ssS'http://dbpedia.org/property/placeOfBirth'
p34
(dp35
g3
I0
sg4
I1943
sg5
I0
ssS'http://dbpedia.org/property/coachTeam'
p36
(dp37
g3
I930
sg4
I71
sg5
I1929
ssS'http://dbpedia.org/property/consecratedBy'
p38
(dp39
g3
I346
sg4
I34
sg5
I1961
ssS'http://dbpedia.org/property/associatedActs'
p40
(dp41
g3
I5
sg4
I1932
sg5
I65
ssS'http://dbpedia.org/property/league'
p42
(dp43
g3
I9
sg4
I1930
sg5
I57
ssS'http://dbpedia.org/property/schoolTradition'
p44
(dp45
g3
I150
sg4
I1164
sg5
I596
ssS'http://dbpedia.org/property/stat1label'
p46
(dp47
g3
I18
sg4
I23
sg5
I1977
ssS'http://dbpedia.org/property/rank'
p48
(dp49
g3
I104
sg4
I1435
sg5
I451
ssS'http://dbpedia.org/property/\xd7\x94\xd7\xa7\xd7\x95\xd7\x93\xd7\x9d'
p50
(dp51
g3
I0
sg4
I1150
sg5
I0
ssS'http://dbpedia.org/property/nationality'
p52
(dp53
g3
I73
sg4
I669
sg5
I1332
ssS'http://dbpedia.org/property/type'
p54
(dp55
g3
I63
sg4
I101
sg5
I1899
ssS'http://dbpedia.org/property/district'
p56
(dp57
g3
I8
sg4
I420
sg5
I136
ssS'http://dbpedia.org/property/ruNationalteam'
p58
(dp59
g3
I302
sg4
I77
sg5
I1738
ssS'http://dbpedia.org/property/predecessor'
p60
(dp61
g3
I217
sg4
I979
sg5
I1020
ssS'http://dbpedia.org/property/dipstyle'
p62
(dp63
g3
I672
sg4
I89
sg5
I1911
ssS'http://dbpedia.org/property/weightClass'
p64
(dp65
g3
I296
sg4
I38
sg5
I1947
ssS'http://dbpedia.org/property/influencedBy'
p66
(dp67
g3
I3
sg4
I1483
sg5
I143
ssS'http://dbpedia.org/property/prizes'
p68
(dp69
g3
I18
sg4
I1747
sg5
I242
ssS'http://dbpedia.org/property/diocese'
p70
(dp71
g3
I257
sg4
I340
sg5
I1637
ssS'http://dbpedia.org/property/\xd7\x9e\xd7\xa7\xd7\x95\xd7\x9d\xd7\x9c\xd7\x99\xd7\x93\xd7\x94'
p72
(dp73
g3
I0
sg4
I2000
sg5
I0
ssS'http://dbpedia.org/property/\xd7\x94\xd7\x91\xd7\x90'
p74
(dp75
g3
I0
sg4
I1163
sg5
I0
ssS'http://dbpedia.org/property/extour'
p76
(dp77
g3
I904
sg4
I35
sg5
I1859
ssS'http://dbpedia.org/property/constituency'
p78
(dp79
g3
I7
sg4
I1812
sg5
I146
ssS'http://dbpedia.org/property/coach'
p80
(dp81
g3
I119
sg4
I851
sg5
I1142
ssS'http://dbpedia.org/property/currentclub'
p82
(dp83
g3
I8
sg4
I1945
sg5
I56
ssS'http://dbpedia.org/property/introducer'
p84
(dp85
g3
I185
sg4
I37
sg5
I1655
ssS'http://dbpedia.org/property/before'
p86
(dp87
g3
I326
sg4
I213
sg5
I1784
ssS'http://dbpedia.org/property/clubs'
p88
(dp89
g3
I14
sg4
I1923
sg5
I76
ssS'http://dbpedia.org/property/religion'
p90
(dp91
g3
I59
sg4
I1753
sg5
I247
ssS'http://dbpedia.org/property/careerPosition'
p92
(dp93
g3
I177
sg4
I7
sg5
I899
ssS'http://dbpedia.org/property/branch'
p94
(dp95
g3
I5
sg4
I1926
sg5
I71
ssS'http://dbpedia.org/property/series'
p96
(dp97
g3
I3
sg4
I1796
sg5
I203
ssS'http://dbpedia.org/property/school'
p98
(dp99
g3
I46
sg4
I1524
sg5
I475
ssS'http://dbpedia.org/property/counties'
p100
(dp101
g3
I13
sg4
I18
sg5
I1982
ssS'http://dbpedia.org/property/restingPlace'
p102
(dp103
g3
I111
sg4
I756
sg5
I1241
ssS'http://dbpedia.org/property/years'
p104
(dp105
g3
I3
sg4
I893
sg5
I25
ssS'http://dbpedia.org/property/constituencyAm'
p106
(dp107
g3
I0
sg4
I1512
sg5
I35
ssS'http://dbpedia.org/property/genre'
p108
(dp109
g3
I6
sg4
I1868
sg5
I133
ssS'http://dbpedia.org/property/\xd7\xa2\xd7\xa0\xd7\xa3\xd7\x9e\xd7\x93\xd7\xa2\xd7\x99'
p110
(dp111
g3
I0
sg4
I1455
sg5
I0
ssS'http://dbpedia.org/property/playerPositions'
p112
(dp113
g3
I525
sg4
I50
sg5
I1942
ssS'http://dbpedia.org/property/label'
p114
(dp115
g3
I21
sg4
I1618
sg5
I372
ssS'http://dbpedia.org/property/conference'
p116
(dp117
g3
I45
sg4
I42
sg5
I527
ssS'http://dbpedia.org/property/honorificPrefix'
p118
(dp119
g3
I250
sg4
I143
sg5
I1854
ssS'http://dbpedia.org/property/cteam'
p120
(dp121
g3
I445
sg4
I18
sg5
I1021
ssS'http://dbpedia.org/property/discipline'
p122
(dp123
g3
I25
sg4
I197
sg5
I1803
ssS'http://dbpedia.org/property/burialPlace'
p124
(dp125
g3
I167
sg4
I666
sg5
I1028
ssS'http://dbpedia.org/property/tour'
p126
(dp127
g3
I541
sg4
I141
sg5
I1442
ssS'http://dbpedia.org/property/governor'
p128
(dp129
g3
I4
sg4
I1966
sg5
I34
ssS'http://dbpedia.org/property/ruAmateurclubs'
p130
(dp131
g3
I274
sg4
I59
sg5
I1930
ssS'http://dbpedia.org/property/partner'
p132
(dp133
g3
I37
sg4
I1271
sg5
I719
ssS'http://dbpedia.org/property/birthPlace'
p134
(dp135
g3
I90
sg4
I1653
sg5
I348
ssS'http://dbpedia.org/property/playedFor'
p136
(dp137
g3
I0
sg4
I1998
sg5
I2
ssS'http://dbpedia.org/property/currentConference'
p138
(dp139
g3
I120
sg4
I131
sg5
I952
ssS'http://dbpedia.org/property/country'
p140
(dp141
g3
I5
sg4
I1450
sg5
I551
ssS'http://dbpedia.org/property/lastagainst'
p142
(dp143
g3
I120
sg4
I35
sg5
I1279
ssS'http://dbpedia.org/property/teama'
p144
(dp145
g3
I314
sg4
I67
sg5
I1929
ssS'http://dbpedia.org/property/teamb'
p146
(dp147
g3
I308
sg4
I78
sg5
I1917
ssS'http://dbpedia.org/property/proteam'
p148
(dp149
g3
I421
sg4
I66
sg5
I1923
ssS'http://dbpedia.org/property/\xd7\x90\xd7\xa8\xd7\xa5\xd7\x9c\xd7\x99\xd7\x93\xd7\x94'
p150
(dp151
g3
I0
sg4
I2000
sg5
I0
ssS'http://dbpedia.org/property/lieutenant'
p152
(dp153
g3
I1
sg4
I1404
sg5
I213
ssS'http://dbpedia.org/property/finalteam'
p154
(dp155
g3
I55
sg4
I456
sg5
I1522
ssS'http://dbpedia.org/property/profession'
p156
(dp157
g3
I41
sg4
I1263
sg5
I738
ssS'http://dbpedia.org/property/\xd7\xa2\xd7\x99\xd7\xa8\xd7\x9c\xd7\x99\xd7\x93\xd7\x94'
p158
(dp159
g3
I0
sg4
I2000
sg5
I0
ssS'http://dbpedia.org/property/publisher'
p160
(dp161
g3
I58
sg4
I78
sg5
I1920
ssS'http://dbpedia.org/property/conf'
p162
(dp163
g3
I119
sg4
I30
sg5
I1929
ssS'http://dbpedia.org/property/draftTeam'
p164
(dp165
g3
I0
sg4
I2001
sg5
I0
ssS'http://dbpedia.org/property/collegeteam'
p166
(dp167
g3
I170
sg4
I41
sg5
I1951
ssS'http://dbpedia.org/property/highschool'
p168
(dp169
g3
I181
sg4
I840
sg5
I1161
ssS'http://dbpedia.org/property/ruProclubs'
p170
(dp171
g3
I524
sg4
I86
sg5
I1905
ssS'http://dbpedia.org/property/name'
p172
(dp173
g3
I11
sg4
I1266
sg5
I623
ssS'http://dbpedia.org/property/successor'
p174
(dp175
g3
I93
sg4
I1500
sg5
I492
ssS'http://dbpedia.org/property/instrument'
p176
(dp177
g3
I183
sg4
I1336
sg5
I662
ssS'http://dbpedia.org/property/notableInstruments'
p178
(dp179
g3
I24
sg4
I1706
sg5
I255
ssS'http://dbpedia.org/property/\xd7\x90\xd7\xa8\xd7\xa6\xd7\x95\xd7\xaa\xd7\x9e\xd7\x92\xd7\x95\xd7\xa8\xd7\x99\xd7\x9d'
p180
(dp181
g3
I0
sg4
I1921
sg5
I0
ssS'http://dbpedia.org/property/currentTitle'
p182
(dp183
g3
I300
sg4
I314
sg5
I1686
ssS'http://dbpedia.org/property/formerTeams'
p184
(dp185
g3
I26
sg4
I1916
sg5
I82
ssS'http://dbpedia.org/property/portrayer'
p186
(dp187
g3
I155
sg4
I851
sg5
I1149
ssS'http://dbpedia.org/property/father'
p188
(dp189
g3
I32
sg4
I1778
sg5
I221
ssS'http://dbpedia.org/property/deathCause'
p190
(dp191
g3
I87
sg4
I1293
sg5
I700
ssS'http://dbpedia.org/property/column'
p192
(dp193
g3
I147
sg4
I47
sg5
I1953
ssS'http://dbpedia.org/property/ruProvince'
p194
(dp195
g3
I277
sg4
I89
sg5
I1598
ssS'http://dbpedia.org/property/debutleague'
p196
(dp197
g3
I36
sg4
I19
sg5
I1981
ssS'http://dbpedia.org/property/commands'
p198
(dp199
g3
I0
sg4
I1996
sg5
I4
ssS'http://dbpedia.org/property/residence'
p200
(dp201
g3
I18
sg4
I1835
sg5
I161
ssS'http://dbpedia.org/property/workInstitutions'
p202
(dp203
g3
I544
sg4
I132
sg5
I1852
ssS'http://dbpedia.org/property/debutteam'
p204
(dp205
g3
I2
sg4
I1967
sg5
I31
ssS'http://dbpedia.org/property/children'
p206
(dp207
g3
I68
sg4
I676
sg5
I702
ssS'http://dbpedia.org/property/field'
p208
(dp209
g3
I14
sg4
I1804
sg5
I197
ssS'http://dbpedia.org/property/formerpartner'
p210
(dp211
g3
I0
sg4
I1110
sg5
I131
ssS'http://dbpedia.org/property/education'
p212
(dp213
g3
I54
sg4
I1306
sg5
I684
ssS'http://dbpedia.org/property/data'
p214
(dp215
g3
I523
sg4
I142
sg5
I1370
ssS'http://dbpedia.org/property/see'
p216
(dp217
g3
I237
sg4
I207
sg5
I1789
ssS'http://dbpedia.org/property/succeeded'
p218
(dp219
g3
I249
sg4
I196
sg5
I1802
ssS'http://dbpedia.org/property/riding'
p220
(dp221
g3
I244
sg4
I21
sg5
I1426
ssS'http://dbpedia.org/property/prevSeries'
p222
(dp223
g3
I509
sg4
I31
sg5
I1186
ssS'http://dbpedia.org/property/nominator'
p224
(dp225
g3
I85
sg4
I60
sg5
I924
ssS'http://dbpedia.org/property/dynasty'
p226
(dp227
g3
I345
sg4
I130
sg5
I1259
ssS'http://dbpedia.org/property/club'
p228
(dp229
g3
I408
sg4
I702
sg5
I1296
ssS'http://dbpedia.org/property/president'
p230
(dp231
g3
I13
sg4
I1625
sg5
I375
ssS'http://dbpedia.org/property/\xd7\xaa\xd7\xa4\xd7\xa7\xd7\x99\xd7\x93\xd7\x9b\xd7\xa9\xd7\x97\xd7\xa7\xd7\x9f'
p232
(dp233
g3
I0
sg4
I2000
sg5
I0
ssS'http://dbpedia.org/property/debutagainst'
p234
(dp235
g3
I205
sg4
I53
sg5
I1721
ssS'http://dbpedia.org/property/issue'
p236
(dp237
g3
I532
sg4
I65
sg5
I1838
ssS'http://dbpedia.org/property/mainInterests'
p238
(dp239
g3
I185
sg4
I1247
sg5
I736
ssS'http://dbpedia.org/property/relatives'
p240
(dp241
g3
I61
sg4
I1478
sg5
I505
ssS'http://dbpedia.org/property/appointer'
p242
(dp243
g3
I99
sg4
I931
sg5
I1068
ssS'http://dbpedia.org/property/church'
p244
(dp245
g3
I902
sg4
I103
sg5
I1896
ssS'http://dbpedia.org/property/fightingOutOf'
p246
(dp247
g3
I401
sg4
I44
sg5
I1918
ssS'http://dbpedia.org/property/fields'
p248
(dp249
g3
I7
sg4
I1809
sg5
I190
ssS'http://dbpedia.org/property/stat3label'
p250
(dp251
g3
I248
sg4
I24
sg5
I1973
ssS'http://dbpedia.org/property/hometown'
p252
(dp253
g3
I79
sg4
I869
sg5
I1131
ssS'http://dbpedia.org/property/homeTown'
p254
(dp255
g3
I93
sg4
I1477
sg5
I523
ssS'http://dbpedia.org/property/style'
p256
(dp257
g3
I455
sg4
I74
sg5
I1843
ssS'http://dbpedia.org/property/appointed'
p258
(dp259
g3
I51
sg4
I101
sg5
I687
ssS'http://dbpedia.org/property/youthclubs'
p260
(dp261
g3
I60
sg4
I1369
sg5
I606
ssS'http://dbpedia.org/property/party'
p262
(dp263
g3
I40
sg4
I1746
sg5
I255
ssS'http://dbpedia.org/property/training'
p264
(dp265
g3
I3
sg4
I1802
sg5
I197
ssS'http://dbpedia.org/property/succession'
p266
(dp267
g3
I800
sg4
I66
sg5
I1798
ssS'http://dbpedia.org/property/workplaces'
p268
(dp269
g3
I600
sg4
I38
sg5
I1945
ssS'http://dbpedia.org/property/classification'
p270
(dp271
g3
I307
sg4
I31
sg5
I1912
ssS'http://dbpedia.org/property/strokes'
p272
(dp273
g3
I467
sg4
I19
sg5
I1974
ssS'http://dbpedia.org/property/\xd7\x9e\xd7\x93\xd7\x99\xd7\xa0\xd7\x94'
p274
(dp275
g3
I0
sg4
I1883
sg5
I0
ssS'http://dbpedia.org/property/species'
p276
(dp277
g3
I66
sg4
I512
sg5
I1486
ssS'http://dbpedia.org/property/weight'
p278
(dp279
g3
I2
sg4
I651
sg5
I13
ssS'http://dbpedia.org/property/influenced'
p280
(dp281
g3
I24
sg4
I1864
sg5
I132
ssS'http://dbpedia.org/property/trainer'
p282
(dp283
g3
I33
sg4
I1515
sg5
I483
ssS'http://dbpedia.org/property/\xd7\x9e\xd7\xa7\xd7\x95\xd7\x9d\xd7\xa4\xd7\x98\xd7\x99\xd7\xa8\xd7\x94'
p284
(dp285
g3
I0
sg4
I2000
sg5
I0
ssS'http://dbpedia.org/property/order'
p286
(dp287
g3
I5
sg4
I1976
sg5
I23
ssS'http://dbpedia.org/property/knownFor'
p288
(dp289
g3
I34
sg4
I1596
sg5
I389
ssS'http://dbpedia.org/property/honorificSuffix'
p290
(dp291
g3
I673
sg4
I456
sg5
I1540
ssS'http://dbpedia.org/property/alongside'
p292
(dp293
g3
I232
sg4
I393
sg5
I1601
ssS'http://dbpedia.org/property/almaMater'
p294
(dp295
g3
I3
sg4
I1940
sg5
I60
ssS'http://dbpedia.org/property/\xd7\xa1\xd7\x95\xd7\x92\xd7\x94'
p296
(dp297
g3
I0
sg4
I1157
sg5
I0
ssS'http://dbpedia.org/property/university'
p298
(dp299
g3
I40
sg4
I1580
sg5
I416
ssS'http://dbpedia.org/property/nobleFamily'
p300
(dp301
g3
I487
sg4
I99
sg5
I1901
ssS'http://dbpedia.org/property/family'
p302
(dp303
g3
I176
sg4
I140
sg5
I1841
ssS'http://dbpedia.org/property/currentTeam'
p304
(dp305
g3
I315
sg4
I762
sg5
I1224
ssS'http://dbpedia.org/property/playerTeam'
p306
(dp307
g3
I429
sg4
I74
sg5
I1926
ssS'http://dbpedia.org/property/occupation'
p308
(dp309
g3
I84
sg4
I1276
sg5
I703
ssS'http://dbpedia.org/property/alliances'
p310
(dp311
g3
I420
sg4
I60
sg5
I1911
ssS'http://dbpedia.org/property/placeofburial'
p312
(dp313
g3
I15
sg4
I1828
sg5
I168
ssS'http://dbpedia.org/property/originalteam'
p314
(dp315
g3
I120
sg4
I62
sg5
I1910
ssS'http://dbpedia.org/property/team'
p316
(dp317
g3
I167
sg4
I1363
sg5
I622
ssS'http://dbpedia.org/property/organization'
p318
(dp319
g3
I252
sg4
I88
sg5
I1881
ssS'http://dbpedia.org/property/spouse'
p320
(dp321
g3
I94
sg4
I788
sg5
I1197
ssS'http://dbpedia.org/property/currentSeries'
p322
(dp323
g3
I144
sg4
I28
sg5
I800
ssS'http://dbpedia.org/property/relstyle'
p324
(dp325
g3
I109
sg4
I39
sg5
I1195
ssS'http://dbpedia.org/property/placeOfBurial'
p326
(dp327
g3
I6
sg4
I1793
sg5
I207
ssS'http://dbpedia.org/property/restingplace'
p328
(dp329
g3
I11
sg4
I1628
sg5
I372
ssS'http://dbpedia.org/property/allegiance'
p330
(dp331
g3
I9
sg4
I1832
sg5
I164
ssS'http://dbpedia.org/property/primeminister'
p332
(dp333
g3
I14
sg4
I1881
sg5
I119
ssS'http://dbpedia.org/property/placeOfDeath'
p334
(dp335
g3
I0
sg4
I2001
sg5
I0
ssS'http://dbpedia.org/property/after'
p336
(dp337
g3
I339
sg4
I209
sg5
I1785
ssS'http://dbpedia.org/property/language'
p338
(dp339
g3
I78
sg4
I1020
sg5
I980
ssS'http://dbpedia.org/property/employer'
p340
(dp341
g3
I20
sg4
I1655
sg5
I338
ssS'http://dbpedia.org/property/subject'
p342
(dp343
g3
I171
sg4
I1043
sg5
I951
ssS'http://dbpedia.org/property/playingTeam'
p344
(dp345
g3
I285
sg4
I196
sg5
I1789
ssS'http://dbpedia.org/property/citizenship'
p346
(dp347
g3
I94
sg4
I1048
sg5
I947
ssS'http://dbpedia.org/property/ruPosition'
p348
(dp349
g3
I1057
sg4
I44
sg5
I1937
ssS'http://dbpedia.org/property/debutfor'
p350
(dp351
g3
I85
sg4
I52
sg5
I1732
ssS'http://dbpedia.org/property/origin'
p352
(dp353
g3
I32
sg4
I1784
sg5
I217
ssS'http://dbpedia.org/property/state'
p354
(dp355
g3
I56
sg4
I249
sg5
I1751
ssS'http://dbpedia.org/property/creators'
p356
(dp357
g3
I7
sg4
I1944
sg5
I56
ssS'http://dbpedia.org/property/deathPlace'
p358
(dp359
g3
I49
sg4
I1488
sg5
I505
ssS'http://dbpedia.org/property/movement'
p360
(dp361
g3
I48
sg4
I1653
sg5
I331
ssS'http://dbpedia.org/property/veneratedIn'
p362
(dp363
g3
I24
sg4
I1891
sg5
I107
ssS'http://dbpedia.org/property/house'
p364
(dp365
g3
I557
sg4
I63
sg5
I1935
ssS'http://dbpedia.org/property/highSchool'
p366
(dp367
g3
I221
sg4
I80
sg5
I1920
ssS'http://dbpedia.org/property/mother'
p368
(dp369
g3
I63
sg4
I1504
sg5
I495
ssS'http://dbpedia.org/property/managerclubs'
p370
(dp371
g3
I167
sg4
I1630
sg5
I360
ssS'http://dbpedia.org/property/title'
p372
(dp373
g3
I611
sg4
I102
sg5
I1862
ssS'http://dbpedia.org/property/position'
p374
(dp375
g3
I92
sg4
I1605
sg5
I395
ssS'http://dbpedia.org/property/otherparty'
p376
(dp377
g3
I2
sg4
I1928
sg5
I70
ssS'http://dbpedia.org/property/college'
p378
(dp379
g3
I67
sg4
I831
sg5
I1170
ssS'http://dbpedia.org/property/\xd7\xa1\xd7\x99\xd7\xa2\xd7\x95\xd7\xaa'
p380
(dp381
g3
I0
sg4
I911
sg5
I0
ssS'http://dbpedia.org/property/sport'
p382
(dp383
g3
I49
sg4
I312
sg5
I1688
ssS'http://dbpedia.org/property/constituencyMp'
p384
(dp385
g3
I53
sg4
I1270
sg5
I724
ssS'http://dbpedia.org/property/doctoralStudents'
p386
(dp387
g3
I22
sg4
I1732
sg5
I258
ssS'http://dbpedia.org/property/workInstitution'
p388
(dp389
g3
I629
sg4
I22
sg5
I1962
ssS'http://dbpedia.org/property/preceded'
p390
(dp391
g3
I284
sg4
I223
sg5
I1774
ssS'http://dbpedia.org/property/parents'
p392
(dp393
g3
I97
sg4
I559
sg5
I1438
ssS'http://dbpedia.org/property/battles'
p394
(dp395
g3
I4
sg4
I1953
sg5
I44
ssS'http://dbpedia.org/property/\xd7\x9e\xd7\x95\xd7\xa2\xd7\x93\xd7\x95\xd7\xa0\xd7\x99\xd7\xa0\xd7\x95\xd7\xa2\xd7\xa8'
p396
(dp397
g3
I0
sg4
I1772
sg5
I0
ssS'http://dbpedia.org/property/office'
p398
(dp399
g3
I36
sg4
I1924
sg5
I72
ssS'http://dbpedia.org/property/with'
p400
(dp401
g3
I188
sg4
I98
sg5
I1536
ssS'http://dbpedia.org/property/influences'
p402
(dp403
g3
I26
sg4
I1882
sg5
I118
ss.