(dp0
S'http://dbpedia.org/property/doctoralAdvisor'
p1
(dp2
S'p_objs_unique_type_counter'
p3
F0.0
sS'p_count'
p4
I188
sS'p_multy_objs_same_type_counter'
p5
F0.026595744680851064
sS'p_has_primitive_type'
p6
F1.0
sS'p_only_one_counter'
p7
F0.9787234042553191
ssS'http://dbpedia.org/property/awards'
p8
(dp9
g3
F0.0286144578313253
sg4
I664
sg5
F0.2936746987951807
sg6
F1.0
sg7
F0.7560240963855421
ssS'http://dbpedia.org/property/ethnicity'
p10
(dp11
g3
F0.0013736263736263737
sg4
I728
sg5
F0.03708791208791209
sg6
F1.0
sg7
F0.9807692307692307
ssS'http://dbpedia.org/property/creator'
p12
(dp13
g3
F0.0025252525252525255
sg4
I792
sg5
F0.14015151515151514
sg6
F1.0
sg7
F0.9002525252525253
ssS'http://dbpedia.org/property/religion'
p14
(dp15
g3
F0.012145748987854251
sg4
I247
sg5
F0.05668016194331984
sg6
F1.0
sg7
F0.9595141700404858
ssS'http://dbpedia.org/property/nationalteam'
p16
(dp17
g3
F0.0
sg4
I478
sg5
F0.5460251046025104
sg6
F1.0
sg7
F0.5167364016736402
ssS'http://dbpedia.org/property/coachTeam'
p18
(dp19
g3
F0.5243781094527363
sg4
I1005
sg5
F0.8746268656716418
sg6
F1.0
sg7
F0.19402985074626866
ssS'http://dbpedia.org/property/hometown'
p20
(dp21
g3
F0.010945273631840797
sg4
I1005
sg5
F0.03980099502487562
sg6
F1.0
sg7
F0.9661691542288557
ssS'http://dbpedia.org/property/associatedActs'
p22
(dp23
g3
F0.0
sg4
I66
sg5
F0.21212121212121213
sg6
F1.0
sg7
F0.8181818181818182
ssS'http://dbpedia.org/property/movement'
p24
(dp25
g3
F0.025936599423631124
sg4
I347
sg5
F0.1037463976945245
sg6
F1.0
sg7
F0.9250720461095101
ssS'http://dbpedia.org/property/rank'
p26
(dp27
g3
F0.022968197879858657
sg4
I566
sg5
F0.13074204946996468
sg6
F1.0
sg7
F0.8992932862190812
ssS'http://dbpedia.org/property/nationality'
p28
(dp29
g3
F0.0
sg4
I1004
sg5
F0.00398406374501992
sg6
F1.0
sg7
F0.9970119521912351
ssS'http://dbpedia.org/property/ruNationalteam'
p30
(dp31
g3
F0.11332007952286283
sg4
I1006
sg5
F0.3190854870775348
sg6
F1.0
sg7
F0.7624254473161034
ssS'http://dbpedia.org/property/position'
p32
(dp33
g3
F0.017721518987341773
sg4
I395
sg5
F0.043037974683544304
sg6
F1.0
sg7
F0.9670886075949368
ssS'http://dbpedia.org/property/weightClass'
p34
(dp35
g3
F0.16766467065868262
sg4
I1002
sg5
F0.49600798403193613
sg6
F1.0
sg7
F0.7534930139720559
ssS'http://dbpedia.org/property/prizes'
p36
(dp37
g3
F0.003952569169960474
sg4
I253
sg5
F0.466403162055336
sg6
F1.0
sg7
F0.5652173913043478
ssS'http://dbpedia.org/property/residence'
p38
(dp39
g3
F0.006024096385542169
sg4
I166
sg5
F0.1144578313253012
sg6
F1.0
sg7
F0.9036144578313253
ssS'http://dbpedia.org/property/constituency'
p40
(dp41
g3
F0.0
sg4
I188
sg5
F0.12234042553191489
sg6
F1.0
sg7
F0.898936170212766
ssS'http://dbpedia.org/property/coach'
p42
(dp43
g3
F0.0009950248756218905
sg4
I1005
sg5
F0.1373134328358209
sg6
F1.0
sg7
F0.891542288557214
ssS'http://dbpedia.org/property/before'
p44
(dp45
g3
F0.018849206349206348
sg4
I1008
sg5
F0.501984126984127
sg6
F1.0
sg7
F0.5962301587301587
ssS'http://dbpedia.org/property/clubs'
p46
(dp47
g3
F0.0
sg4
I78
sg5
F0.24358974358974358
sg6
F1.0
sg7
F0.782051282051282
ssS'http://dbpedia.org/property/branch'
p48
(dp49
g3
F0.0
sg4
I75
sg5
F0.05333333333333334
sg6
F1.0
sg7
F0.9466666666666667
ssS'http://dbpedia.org/property/deathCause'
p50
(dp51
g3
F0.0
sg4
I707
sg5
F0.007072135785007072
sg6
F1.0
sg7
F0.9943422913719944
ssS'http://dbpedia.org/property/commands'
p52
(dp53
g3
F0.0
sg4
I5
sg5
F0.2
sg6
F1.0
sg7
F0.8
ssS'http://dbpedia.org/property/restingPlace'
p54
(dp55
g3
F0.029
sg4
I1000
sg5
F0.297
sg6
F1.0
sg7
F0.788
ssS'http://dbpedia.org/property/constituencyAm'
p56
(dp57
g3
F0.02564102564102564
sg4
I39
sg5
F0.15384615384615385
sg6
F1.0
sg7
F0.8461538461538461
ssS'http://dbpedia.org/property/genre'
p58
(dp59
g3
F0.015037593984962405
sg4
I133
sg5
F0.05263157894736842
sg6
F1.0
sg7
F0.9473684210526315
ssS'http://dbpedia.org/property/placeOfBurial'
p60
(dp61
g3
F0.014492753623188406
sg4
I207
sg5
F0.033816425120772944
sg6
F1.0
sg7
F0.9758454106280193
ssS'http://dbpedia.org/property/playerPositions'
p62
(dp63
g3
F0.09126984126984126
sg4
I1008
sg5
F0.19246031746031747
sg6
F1.0
sg7
F0.8551587301587301
ssS'http://dbpedia.org/property/conference'
p64
(dp65
g3
F0.022840119165839126
sg4
I1007
sg5
F0.871896722939424
sg6
F1.0
sg7
F0.21449851042701093
ssS'http://dbpedia.org/property/honorificPrefix'
p66
(dp67
g3
F0.021
sg4
I1000
sg5
F0.061
sg6
F1.0
sg7
F0.968
ssS'http://dbpedia.org/property/discipline'
p68
(dp69
g3
F0.000998003992015968
sg4
I1002
sg5
F0.023952095808383235
sg6
F1.0
sg7
F0.9810379241516967
ssS'http://dbpedia.org/property/burialPlace'
p70
(dp71
g3
F0.04265873015873016
sg4
I1008
sg5
F0.19047619047619047
sg6
F1.0
sg7
F0.8422619047619048
ssS'http://dbpedia.org/property/partner'
p72
(dp73
g3
F0.0
sg4
I727
sg5
F0.05364511691884457
sg6
F1.0
sg7
F0.9504814305364512
ssS'http://dbpedia.org/property/birthPlace'
p74
(dp75
g3
F0.05459770114942529
sg4
I348
sg5
F0.41379310344827586
sg6
F1.0
sg7
F0.7155172413793104
ssS'http://dbpedia.org/property/premier'
p76
(dp77
g3
F0.0009910802775024777
sg4
I1009
sg5
F0.5104063429137761
sg6
F1.0
sg7
F0.5668979187314173
ssS'http://dbpedia.org/property/predecessor'
p78
(dp79
g3
F0.03
sg4
I1000
sg5
F0.443
sg6
F1.0
sg7
F0.641
ssS'http://dbpedia.org/property/country'
p80
(dp81
g3
F0.0
sg4
I551
sg5
F0.02722323049001815
sg6
F1.0
sg7
F0.9727767695099818
ssS'http://dbpedia.org/property/honorificSuffix'
p82
(dp83
g3
F0.11488511488511488
sg4
I1001
sg5
F0.2987012987012987
sg6
F1.0
sg7
F0.7942057942057942
ssS'http://dbpedia.org/property/careerPosition'
p84
(dp85
g3
F0.18020022246941045
sg4
I899
sg5
F0.32146829810901
sg6
F1.0
sg7
F0.692992213570634
ssS'http://dbpedia.org/property/finalteam'
p86
(dp87
g3
F0.0
sg4
I1002
sg5
F0.001996007984031936
sg6
F1.0
sg7
F0.998003992015968
ssS'http://dbpedia.org/property/language'
p88
(dp89
g3
F0.0010204081632653062
sg4
I980
sg5
F0.015306122448979591
sg6
F1.0
sg7
F0.9857142857142858
ssS'http://dbpedia.org/property/succeeded'
p90
(dp91
g3
F0.02694610778443114
sg4
I1002
sg5
F0.3992015968063872
sg6
F1.0
sg7
F0.7015968063872255
ssS'http://dbpedia.org/property/citizenship'
p92
(dp93
g3
F0.001049317943336831
sg4
I953
sg5
F0.07030430220356768
sg6
F1.0
sg7
F0.9401888772298006
ssS'http://dbpedia.org/property/portrayer'
p94
(dp95
g3
F0.013916500994035786
sg4
I1006
sg5
F0.4592445328031809
sg6
F1.0
sg7
F0.6491053677932406
ssS'http://dbpedia.org/property/father'
p96
(dp97
g3
F0.0045045045045045045
sg4
I222
sg5
F0.08558558558558559
sg6
F1.0
sg7
F0.9504504504504504
ssS'http://dbpedia.org/property/debutleague'
p98
(dp99
g3
F0.0
sg4
I1010
sg5
F0.0
sg6
F1.0
sg7
F1.0
ssS'http://dbpedia.org/property/league'
p100
(dp101
g3
F0.0
sg4
I71
sg5
F0.08450704225352113
sg6
F1.0
sg7
F0.9154929577464789
ssS'http://dbpedia.org/property/workInstitutions'
p102
(dp103
g3
F0.054563492063492064
sg4
I1008
sg5
F0.4861111111111111
sg6
F1.0
sg7
F0.626984126984127
ssS'http://dbpedia.org/property/debutteam'
p104
(dp105
g3
F0.0
sg4
I31
sg5
F0.0
sg6
F1.0
sg7
F1.0
ssS'http://dbpedia.org/property/children'
p106
(dp107
g3
F0.0009940357852882703
sg4
I1006
sg5
F0.28727634194831014
sg6
F1.0
sg7
F0.7137176938369781
ssS'http://dbpedia.org/property/field'
p108
(dp109
g3
F0.02030456852791878
sg4
I197
sg5
F0.04060913705583756
sg6
F1.0
sg7
F0.9746192893401016
ssS'http://dbpedia.org/property/education'
p110
(dp111
g3
F0.02881844380403458
sg4
I694
sg5
F0.1729106628242075
sg6
F1.0
sg7
F0.8544668587896254
ssS'http://dbpedia.org/property/conf'
p112
(dp113
g3
F0.15789473684210525
sg4
I1007
sg5
F0.4985104270109235
sg6
F1.0
sg7
F0.6325719960278053
ssS'http://dbpedia.org/property/prevSeries'
p114
(dp115
g3
F0.2259663032705649
sg4
I1009
sg5
F0.8840436075322101
sg6
F1.0
sg7
F0.25867195242814667
ssS'http://dbpedia.org/property/club'
p116
(dp117
g3
F0.03187250996015936
sg4
I1004
sg5
F0.646414342629482
sg6
F1.0
sg7
F0.4063745019920319
ssS'http://dbpedia.org/property/president'
p118
(dp119
g3
F0.0
sg4
I375
sg5
F0.168
sg6
F1.0
sg7
F0.8506666666666667
ssS'http://dbpedia.org/property/debutagainst'
p120
(dp121
g3
F0.05179282868525897
sg4
I1004
sg5
F0.3336653386454183
sg6
F1.0
sg7
F0.7091633466135459
ssS'http://dbpedia.org/property/issue'
p122
(dp123
g3
F0.08531746031746032
sg4
I1008
sg5
F0.7509920634920635
sg6
F1.0
sg7
F0.4176587301587302
ssS'http://dbpedia.org/property/relatives'
p124
(dp125
g3
F0.007662835249042145
sg4
I522
sg5
F0.3045977011494253
sg6
F1.0
sg7
F0.7241379310344828
ssS'http://dbpedia.org/property/appointer'
p126
(dp127
g3
F0.01898101898101898
sg4
I1001
sg5
F0.15984015984015984
sg6
F1.0
sg7
F0.8621378621378621
ssS'http://dbpedia.org/property/church'
p128
(dp129
g3
F0.003
sg4
I1000
sg5
F0.013
sg6
F1.0
sg7
F0.993
ssS'http://dbpedia.org/property/fields'
p130
(dp131
g3
F0.010471204188481676
sg4
I191
sg5
F0.06282722513089005
sg6
F1.0
sg7
F0.93717277486911
ssS'http://dbpedia.org/property/consecratedBy'
p132
(dp133
g3
F0.006951340615690168
sg4
I1007
sg5
F0.08838133068520357
sg6
F1.0
sg7
F0.958291956305859
ssS'http://dbpedia.org/property/homeTown'
p134
(dp135
g3
F0.021032504780114723
sg4
I523
sg5
F0.4397705544933078
sg6
F1.0
sg7
F0.6959847036328872
ssS'http://dbpedia.org/property/appointed'
p136
(dp137
g3
F0.0
sg4
I1009
sg5
F0.028741328047571853
sg6
F1.0
sg7
F0.9781962338949455
ssS'http://dbpedia.org/property/party'
p138
(dp139
g3
F0.00392156862745098
sg4
I255
sg5
F0.7450980392156863
sg6
F1.0
sg7
F0.27450980392156865
ssS'http://dbpedia.org/property/workplaces'
p140
(dp141
g3
F0.07738095238095238
sg4
I1008
sg5
F0.5674603174603174
sg6
F1.0
sg7
F0.5436507936507936
ssS'http://dbpedia.org/property/classification'
p142
(dp143
g3
F0.0019860973187686196
sg4
I1007
sg5
F0.07348560079443893
sg6
F1.0
sg7
F0.968222442899702
ssS'http://dbpedia.org/property/collegeteam'
p144
(dp145
g3
F0.010967098703888335
sg4
I1003
sg5
F0.04885343968095713
sg6
F1.0
sg7
F0.9770687936191426
ssS'http://dbpedia.org/property/knownFor'
p146
(dp147
g3
F0.007425742574257425
sg4
I404
sg5
F0.11138613861386139
sg6
F1.0
sg7
F0.905940594059406
ssS'http://dbpedia.org/property/sport'
p148
(dp149
g3
F0.005952380952380952
sg4
I1008
sg5
F0.26587301587301587
sg6
F1.0
sg7
F0.7361111111111112
ssS'http://dbpedia.org/property/almaMater'
p150
(dp151
g3
F0.0
sg4
I61
sg5
F0.11475409836065574
sg6
F1.0
sg7
F0.9016393442622951
ssS'http://dbpedia.org/property/university'
p152
(dp153
g3
F0.007142857142857143
sg4
I420
sg5
F0.09523809523809523
sg6
F1.0
sg7
F0.9547619047619048
ssS'http://dbpedia.org/property/occupation'
p154
(dp155
g3
F0.004261363636363636
sg4
I704
sg5
F0.09375
sg6
F1.0
sg7
F0.9090909090909091
ssS'http://dbpedia.org/property/family'
p156
(dp157
g3
F0.019860973187686197
sg4
I1007
sg5
F0.31976166832174774
sg6
F1.0
sg7
F0.7517378351539226
ssS'http://dbpedia.org/property/nobleFamily'
p158
(dp159
g3
F0.005970149253731343
sg4
I1005
sg5
F0.045771144278606964
sg6
F1.0
sg7
F0.9661691542288557
ssS'http://dbpedia.org/property/alliances'
p160
(dp161
g3
F0.24826216484607747
sg4
I1007
sg5
F0.6226415094339622
sg6
F1.0
sg7
F0.4816285998013903
ssS'http://dbpedia.org/property/team'
p162
(dp163
g3
F0.004724409448818898
sg4
I635
sg5
F0.262992125984252
sg6
F1.0
sg7
F0.7905511811023622
ssS'http://dbpedia.org/property/spouse'
p164
(dp165
g3
F0.0
sg4
I1006
sg5
F0.19980119284294234
sg6
F1.0
sg7
F0.8041749502982107
ssS'http://dbpedia.org/property/workInstitution'
p166
(dp167
g3
F0.06355511420059583
sg4
I1007
sg5
F0.5173783515392254
sg6
F1.0
sg7
F0.6246276067527309
ssS'http://dbpedia.org/property/allegiance'
p168
(dp169
g3
F0.005952380952380952
sg4
I168
sg5
F0.047619047619047616
sg6
F1.0
sg7
F0.9702380952380952
ssS'http://dbpedia.org/property/after'
p170
(dp171
g3
F0.031746031746031744
sg4
I1008
sg5
F0.4930555555555556
sg6
F1.0
sg7
F0.5942460317460317
ssS'http://dbpedia.org/property/counties'
p172
(dp173
g3
F0.038922155688622756
sg4
I1002
sg5
F0.07584830339321358
sg6
F1.0
sg7
F0.9570858283433133
ssS'http://dbpedia.org/property/employer'
p174
(dp175
g3
F0.005797101449275362
sg4
I345
sg5
F0.06376811594202898
sg6
F1.0
sg7
F0.9507246376811594
ssS'http://dbpedia.org/property/constituencyMp'
p176
(dp177
g3
F0.10136986301369863
sg4
I730
sg5
F0.2821917808219178
sg6
F1.0
sg7
F0.7465753424657534
ssS'http://dbpedia.org/property/playingTeam'
p178
(dp179
g3
F0.057539682539682536
sg4
I1008
sg5
F0.6299603174603174
sg6
F1.0
sg7
F0.44047619047619047
ssS'http://dbpedia.org/property/debutfor'
p180
(dp181
g3
F0.0049800796812749
sg4
I1004
sg5
F0.09262948207171315
sg6
F1.0
sg7
F0.9272908366533864
ssS'http://dbpedia.org/property/creators'
p182
(dp183
g3
F0.03571428571428571
sg4
I56
sg5
F0.5
sg6
F1.0
sg7
F0.5535714285714286
ssS'http://dbpedia.org/property/deathPlace'
p184
(dp185
g3
F0.055226824457593686
sg4
I507
sg5
F0.22287968441814596
sg6
F1.0
sg7
F0.8007889546351085
ssS'http://dbpedia.org/property/house'
p186
(dp187
g3
F0.007976071784646061
sg4
I1003
sg5
F0.04885343968095713
sg6
F1.0
sg7
F0.9651046859421735
ssS'http://dbpedia.org/property/mother'
p188
(dp189
g3
F0.0
sg4
I497
sg5
F0.04225352112676056
sg6
F1.0
sg7
F0.9678068410462777
ssS'http://dbpedia.org/property/college'
p190
(dp191
g3
F0.0069721115537848604
sg4
I1004
sg5
F0.0099601593625498
sg6
F1.0
sg7
F0.9900398406374502
ssS'http://dbpedia.org/property/alongside'
p192
(dp193
g3
F0.02091633466135458
sg4
I1004
sg5
F0.547808764940239
sg6
F1.0
sg7
F0.49701195219123506
ssS'http://dbpedia.org/property/cteam'
p194
(dp195
g3
F0.15422885572139303
sg4
I1005
sg5
F0.7601990049751244
sg6
F1.0
sg7
F0.35124378109452736
ssS'http://dbpedia.org/property/preceded'
p196
(dp197
g3
F0.036926147704590816
sg4
I1002
sg5
F0.4181636726546906
sg6
F1.0
sg7
F0.7125748502994012
ssS'http://dbpedia.org/property/parents'
p198
(dp199
g3
F0.009930486593843098
sg4
I1007
sg5
F0.4846077457795432
sg6
F1.0
sg7
F0.5829195630585898
ssS'http://dbpedia.org/property/battles'
p200
(dp201
g3
F0.0
sg4
I45
sg5
F0.1111111111111111
sg6
F1.0
sg7
F0.9333333333333333
ssS'http://dbpedia.org/property/data'
p202
(dp203
g3
F0.053518334985133795
sg4
I1009
sg5
F0.5014866204162537
sg6
F1.0
sg7
F0.6005946481665014
ss.