(dp0
S'http://dbpedia.org/ontology/birthPlace'
p1
(dp2
S'p_type_counters'
p3
(dp4
S'http://dbpedia.org/ontology/Country'
p5
I20
sS'http://dbpedia.org/ontology/Document'
p6
I0
sS'http://dbpedia.org/ontology/PoliticalParty'
p7
I0
sS'http://dbpedia.org/ontology/NaturalPlace'
p8
I0
sS'http://dbpedia.org/ontology/Film'
p9
I0
sS'http://dbpedia.org/ontology/ArchitecturalStructure'
p10
I0
sS'http://dbpedia.org/ontology/Place'
p11
I92
sS'http://dbpedia.org/ontology/Activity'
p12
I0
sS'http://dbpedia.org/ontology/Person'
p13
I6
sS'http://dbpedia.org/ontology/MusicalWork'
p14
I0
sS'http://dbpedia.org/ontology/SportsTeam'
p15
I0
sS'http://dbpedia.org/ontology/Work'
p16
I0
sS'http://dbpedia.org/ontology/PopulatedPlace'
p17
I92
sS'http://dbpedia.org/ontology/Organisation'
p18
I2
sS'http://dbpedia.org/ontology/NaturalEvent'
p19
I0
sS'http://dbpedia.org/ontology/SocietalEvent'
p20
I0
sS'http://dbpedia.org/ontology/Event'
p21
I0
sS'http://dbpedia.org/ontology/EducationalInstitution'
p22
I0
sS'http://dbpedia.org/ontology/Company'
p23
I0
ssS'p_only_one_counter'
p24
F0.6021505376344086
sS'p_has_primitive_type'
p25
F0.010752688172043012
sS'p_count'
p26
I93
sS'p_multy_objs_same_type_counter'
p27
F0.3225806451612903
sS'p_objs_unique_type_counter'
p28
F0.07526881720430108
ssS'http://dbpedia.org/ontology/spouse'
p29
(dp30
g3
(dp31
g5
I0
sg6
I0
sg7
I0
sg8
I0
sg9
I1
sg10
I0
sg11
I0
sg12
I0
sg13
I85
sg14
I0
sg15
I0
sg16
I0
sg17
I0
sg18
I0
sg19
I0
sg20
I0
sg21
I0
sg22
I0
sg23
I0
ssg24
F0.8383838383838383
sg25
F0.1111111111111111
sg26
I99
sg27
F0.13131313131313133
sg28
F0.030303030303030304
ss.