(dp0
S'http://dbpedia.org/ontology/type'
p1
I73
sS'http://dbpedia.org/ontology/mainInterest'
p2
I73
sS'http://dbpedia.org/ontology/governor'
p3
I133
sS'http://dbpedia.org/ontology/academicDiscipline'
p4
I7
sS'http://dbpedia.org/ontology/restingPlace'
p5
I663
sS'http://dbpedia.org/ontology/previousWork'
p6
I39
sS'http://dbpedia.org/ontology/knownFor'
p7
I1057
sS'http://dbpedia.org/ontology/leaderFunction'
p8
I6
sS'http://dbpedia.org/ontology/veneratedIn'
p9
I64
sS'http://dbpedia.org/ontology/recordLabel'
p10
I993
sS'http://dbpedia.org/ontology/formerPartner'
p11
I32
sS'http://dbpedia.org/ontology/termPeriod'
p12
I2713
sS'http://dbpedia.org/ontology/currentPartner'
p13
I16
sS'http://dbpedia.org/ontology/binomialAuthority'
p14
I14
sS'http://dbpedia.org/ontology/formerTeam'
p15
I1251
sS'http://dbpedia.org/ontology/canonizedPlace'
p16
I13
sS'http://dbpedia.org/ontology/openingTheme'
p17
I5
sS'http://dbpedia.org/ontology/sire'
p18
I12
sS'http://dbpedia.org/ontology/subsequentWork'
p19
I30
sS'http://dbpedia.org/ontology/choreographer'
p20
I19
sS'http://dbpedia.org/ontology/academicAdvisor'
p21
I42
sS'http://dbpedia.org/ontology/genus'
p22
I16
sS'http://dbpedia.org/ontology/occupation'
p23
I7606
sS'http://dbpedia.org/ontology/damsire'
p24
I9
sS'http://dbpedia.org/ontology/company'
p25
I27
sS'http://dbpedia.org/ontology/club'
p26
I80
sS'http://dbpedia.org/ontology/residence'
p27
I1894
sS'http://dbpedia.org/ontology/mythology'
p28
I10
sS'http://dbpedia.org/ontology/board'
p29
I33
sS'http://dbpedia.org/ontology/notableWork'
p30
I185
sS'http://dbpedia.org/ontology/philosophicalSchool'
p31
I62
sS'http://dbpedia.org/ontology/narrator'
p32
I7
sS'http://dbpedia.org/ontology/programmeFormat'
p33
I8
sS'http://dbpedia.org/ontology/location'
p34
I125
sS'http://dbpedia.org/ontology/predecessor'
p35
I1912
sS'http://dbpedia.org/ontology/governorGeneral'
p36
I12
sS'http://dbpedia.org/ontology/state'
p37
I6
sS'http://dbpedia.org/ontology/college'
p38
I415
sS'http://dbpedia.org/ontology/starring'
p39
I52
sS'http://dbpedia.org/ontology/presenter'
p40
I5
sS'http://dbpedia.org/ontology/era'
p41
I50
sS'http://dbpedia.org/ontology/artist'
p42
I23
sS'http://dbpedia.org/ontology/hometown'
p43
I1280
sS'http://dbpedia.org/ontology/lieutenant'
p44
I68
sS'http://dbpedia.org/ontology/successor'
p45
I2552
sS'http://dbpedia.org/ontology/religion'
p46
I1121
sS'http://dbpedia.org/ontology/creator'
p47
I361
sS'http://dbpedia.org/ontology/profession'
p48
I401
sS'http://dbpedia.org/ontology/citizenship'
p49
I219
sS'http://dbpedia.org/ontology/taoiseach'
p50
I11
sS'http://dbpedia.org/ontology/whaDraftTeam'
p51
I17
sS'http://dbpedia.org/ontology/musicalArtist'
p52
I5
sS'http://dbpedia.org/ontology/prospectTeam'
p53
I18
sS'http://dbpedia.org/ontology/owningCompany'
p54
I8
sS'http://dbpedia.org/ontology/president'
p55
I377
sS'http://dbpedia.org/ontology/phylum'
p56
I13
sS'http://dbpedia.org/ontology/significantBuilding'
p57
I72
sS'http://dbpedia.org/ontology/producer'
p58
I54
sS'http://dbpedia.org/ontology/firstWin'
p59
I6
sS'http://dbpedia.org/ontology/publisher'
p60
I26
sS'http://dbpedia.org/ontology/beatifiedPlace'
p61
I17
sS'http://dbpedia.org/ontology/draftTeam'
p62
I431
sS'http://dbpedia.org/ontology/currentMember'
p63
I9
sS'http://dbpedia.org/ontology/formerChoreographer'
p64
I19
sS'http://dbpedia.org/ontology/beatifiedBy'
p65
I23
sS'http://dbpedia.org/ontology/restingPlacePosition'
p66
I8
sS'http://dbpedia.org/ontology/writer'
p67
I30
sS'http://dbpedia.org/ontology/related'
p68
I5
sS'http://dbpedia.org/ontology/affiliation'
p69
I7
sS'http://dbpedia.org/ontology/billed'
p70
I39
sS'http://dbpedia.org/ontology/format'
p71
I15
sS'http://dbpedia.org/ontology/manufacturer'
p72
I12
sS'http://dbpedia.org/ontology/discipline'
p73
I35
sS'http://dbpedia.org/ontology/significantProject'
p74
I33
sS'http://dbpedia.org/ontology/movement'
p75
I210
sS'http://dbpedia.org/ontology/party'
p76
I3046
sS'http://dbpedia.org/ontology/highschool'
p77
I203
sS'http://dbpedia.org/ontology/managerClub'
p78
I685
sS'http://dbpedia.org/ontology/builder'
p79
I5
sS'http://dbpedia.org/ontology/deathPlace'
p80
I11581
sS'http://dbpedia.org/ontology/parentCompany'
p81
I21
sS'http://dbpedia.org/ontology/partner'
p82
I79
sS'http://dbpedia.org/ontology/composer'
p83
I18
sS'http://dbpedia.org/ontology/otherParty'
p84
I157
sS'http://dbpedia.org/ontology/cinematography'
p85
I17
sS'http://dbpedia.org/ontology/coach'
p86
I39
sS'http://dbpedia.org/ontology/placeOfBurial'
p87
I48
sS'http://dbpedia.org/ontology/nationalTeam'
p88
I32
sS'http://dbpedia.org/ontology/birthPlace'
p89
I32234
sS'http://dbpedia.org/ontology/militaryUnit'
p90
I313
sS'http://dbpedia.org/ontology/locationCountry'
p91
I49
sS'http://dbpedia.org/ontology/keyPerson'
p92
I26
sS'http://dbpedia.org/ontology/trainer'
p93
I87
sS'http://dbpedia.org/ontology/influenced'
p94
I180
sS'http://dbpedia.org/ontology/training'
p95
I158
sS'http://dbpedia.org/ontology/colour'
p96
I15
sS'http://dbpedia.org/ontology/stateOfOrigin'
p97
I1073
sS'http://dbpedia.org/ontology/operatingSystem'
p98
I9
sS'http://dbpedia.org/ontology/lastAppearance'
p99
I62
sS'http://dbpedia.org/ontology/associatedMusicalArtist'
p100
I1270
sS'http://dbpedia.org/ontology/majorShrine'
p101
I38
sS'http://dbpedia.org/ontology/parent'
p102
I719
sS'http://dbpedia.org/ontology/associatedAct'
p103
I8
sS'http://dbpedia.org/ontology/origin'
p104
I5
sS'http://dbpedia.org/ontology/country'
p105
I2114
sS'http://dbpedia.org/ontology/musicComposer'
p106
I24
sS'http://dbpedia.org/ontology/gender'
p107
I13
sS'http://dbpedia.org/ontology/spouse'
p108
I1320
sS'http://dbpedia.org/ontology/class'
p109
I24
sS'http://dbpedia.org/ontology/televisionSeries'
p110
I67
sS'http://dbpedia.org/ontology/distributor'
p111
I47
sS'http://dbpedia.org/ontology/notableIdea'
p112
I31
sS'http://dbpedia.org/ontology/industry'
p113
I61
sS'http://dbpedia.org/ontology/bandMember'
p114
I4
sS'http://dbpedia.org/ontology/nationality'
p115
I4169
sS'http://dbpedia.org/ontology/school'
p116
I131
sS'http://dbpedia.org/ontology/education'
p117
I545
sS'http://dbpedia.org/ontology/language'
p118
I87
sS'http://dbpedia.org/ontology/family'
p119
I12
sS'http://dbpedia.org/ontology/relative'
p120
I352
sS'http://dbpedia.org/ontology/deathCause'
p121
I213
sS'http://dbpedia.org/ontology/network'
p122
I30
sS'http://dbpedia.org/ontology/primeMinister'
p123
I391
sS'http://dbpedia.org/ontology/agency'
p124
I10
sS'http://dbpedia.org/ontology/vicePresident'
p125
I29
sS'http://dbpedia.org/ontology/mission'
p126
I33
sS'http://dbpedia.org/ontology/league'
p127
I439
sS'http://dbpedia.org/ontology/foundedBy'
p128
I6
sS'http://dbpedia.org/ontology/instrument'
p129
I988
sS'http://dbpedia.org/ontology/appointer'
p130
I50
sS'http://dbpedia.org/ontology/relation'
p131
I239
sS'http://dbpedia.org/ontology/thumbnail'
p132
I20219
sS'http://dbpedia.org/ontology/regionServed'
p133
I21
sS'http://dbpedia.org/ontology/city'
p134
I22
sS'http://dbpedia.org/ontology/raceHorse'
p135
I24
sS'http://dbpedia.org/ontology/ethnicity'
p136
I175
sS'http://dbpedia.org/ontology/license'
p137
I16
sS'http://dbpedia.org/ontology/opponent'
p138
I8
sS'http://dbpedia.org/ontology/literaryGenre'
p139
I5
sS'http://dbpedia.org/ontology/university'
p140
I57
sS'http://dbpedia.org/ontology/basedOn'
p141
I6
sS'http://dbpedia.org/ontology/owner'
p142
I24
sS'http://dbpedia.org/ontology/doctoralStudent'
p143
I132
sS'http://dbpedia.org/ontology/associatedBand'
p144
I1270
sS'http://dbpedia.org/ontology/award'
p145
I1479
sS'http://dbpedia.org/ontology/deputy'
p146
I65
sS'http://dbpedia.org/ontology/debutTeam'
p147
I795
sS'http://dbpedia.org/ontology/influencedBy'
p148
I377
sS'http://dbpedia.org/ontology/militaryRank'
p149
I137
sS'http://dbpedia.org/ontology/foundationPlace'
p150
I19
sS'http://dbpedia.org/ontology/soundRecording'
p151
I111
sS'http://dbpedia.org/ontology/wikiPageRedirects'
p152
I105
sS'http://dbpedia.org/ontology/breeder'
p153
I9
sS'http://dbpedia.org/ontology/executiveProducer'
p154
I20
sS'http://dbpedia.org/ontology/race'
p155
I40
sS'http://dbpedia.org/ontology/musicalBand'
p156
I7
sS'http://dbpedia.org/ontology/team'
p157
I5409
sS'http://dbpedia.org/ontology/battle'
p158
I1040
sS'http://dbpedia.org/ontology/editing'
p159
I8
sS'http://dbpedia.org/ontology/militaryBranch'
p160
I913
sS'http://dbpedia.org/ontology/director'
p161
I49
sS'http://dbpedia.org/ontology/developer'
p162
I12
sS'http://dbpedia.org/ontology/position'
p163
I5238
sS'http://dbpedia.org/ontology/product'
p164
I34
sS'http://dbpedia.org/ontology/grandsire'
p165
I11
sS'http://dbpedia.org/ontology/canonizedBy'
p166
I29
sS'http://dbpedia.org/ontology/monarch'
p167
I225
sS'http://dbpedia.org/ontology/notableStudent'
p168
I47
sS'http://dbpedia.org/ontology/wikiPageDisambiguates'
p169
I20
sS'http://dbpedia.org/ontology/personFunction'
p170
I184
sS'http://dbpedia.org/ontology/associate'
p171
I62
sS'http://dbpedia.org/ontology/kingdom'
p172
I15
sS'http://dbpedia.org/ontology/chancellor'
p173
I8
sS'http://dbpedia.org/ontology/programmingLanguage'
p174
I12
sS'http://dbpedia.org/ontology/species'
p175
I37
sS'http://dbpedia.org/ontology/author'
p176
I25
sS'http://dbpedia.org/ontology/voice'
p177
I64
sS'http://dbpedia.org/ontology/lastWin'
p178
I6
sS'http://dbpedia.org/ontology/lastRace'
p179
I34
sS'http://dbpedia.org/ontology/wikiPageWikiLink'
p180
I56296
sS'http://dbpedia.org/ontology/honours'
p181
I15
sS'http://dbpedia.org/ontology/headquarter'
p182
I17
sS'http://dbpedia.org/ontology/field'
p183
I1091
sS'http://dbpedia.org/ontology/firstRace'
p184
I38
sS'http://dbpedia.org/ontology/doctoralAdvisor'
p185
I251
sS'http://dbpedia.org/ontology/region'
p186
I922
sS'http://dbpedia.org/ontology/formerCoach'
p187
I40
sS'http://dbpedia.org/ontology/channel'
p188
I10
sS'http://dbpedia.org/ontology/broadcastArea'
p189
I16
sS'http://dbpedia.org/ontology/institution'
p190
I48
sS'http://dbpedia.org/ontology/child'
p191
I504
sS'http://dbpedia.org/ontology/almaMater'
p192
I3355
sS'http://dbpedia.org/ontology/careerStation'
p193
I4490
sS'http://dbpedia.org/ontology/prospectLeague'
p194
I27
sS'http://dbpedia.org/ontology/sport'
p195
I125
sS'http://dbpedia.org/ontology/series'
p196
I130
sS'http://dbpedia.org/ontology/portrayer'
p197
I134
sS'http://dbpedia.org/ontology/locationCity'
p198
I32
sS'http://dbpedia.org/ontology/genre'
p199
I2550
sS'http://dbpedia.org/ontology/employer'
p200
I190
s.