(dp0
S'http://dbpedia.org/property/stat2label'
p1
I1511
sS'http://dbpedia.org/property/doctoralAdvisor'
p2
I4982
sS'http://dbpedia.org/property/lastfor'
p3
I711
sS'http://dbpedia.org/property/awards'
p4
I24220
sS'http://dbpedia.org/property/deputy'
p5
I1068
sS'http://dbpedia.org/property/statlabel'
p6
I2041
sS'http://dbpedia.org/property/field'
p7
I14087
sS'http://dbpedia.org/property/allegiance'
p8
I7913
sS'http://dbpedia.org/property/ethnicity'
p9
I6729
sS'http://dbpedia.org/property/creator'
p10
I3431
sS'http://dbpedia.org/property/monarch'
p11
I4585
sS'http://dbpedia.org/property/unit'
p12
I5135
sS'http://dbpedia.org/property/nationalteam'
p13
I58164
sS'http://dbpedia.org/property/relations'
p14
I3466
sS'http://dbpedia.org/property/playedFor'
p15
I6613
sS'http://dbpedia.org/property/shortDescription'
p16
I10118
sS'http://dbpedia.org/property/placeOfBirth'
p17
I340561
sS'http://dbpedia.org/property/coachTeam'
p18
I6630
sS'http://dbpedia.org/property/consecratedBy'
p19
I1600
sS'http://dbpedia.org/property/associatedActs'
p20
I18044
sS'http://dbpedia.org/property/schoolTradition'
p21
I1273
sS'http://dbpedia.org/property/stat1label'
p22
I9343
sS'http://dbpedia.org/property/counties'
p23
I2565
sS'http://dbpedia.org/property/\xd7\x94\xd7\xa7\xd7\x95\xd7\x93\xd7\x9d'
p24
I809
sS'http://dbpedia.org/property/nationality'
p25
I54358
sS'http://dbpedia.org/property/type'
p26
I1574
sS'http://dbpedia.org/property/district'
p27
I730
sS'http://dbpedia.org/property/ruNationalteam'
p28
I3527
sS'http://dbpedia.org/property/predecessor'
p29
I64755
sS'http://dbpedia.org/property/dipstyle'
p30
I938
sS'http://dbpedia.org/property/weightClass'
p31
I1875
sS'http://dbpedia.org/property/influencedBy'
p32
I1115
sS'http://dbpedia.org/property/prizes'
p33
I1490
sS'http://dbpedia.org/property/diocese'
p34
I1714
sS'http://dbpedia.org/property/\xd7\x9e\xd7\xa7\xd7\x95\xd7\x9d\xd7\x9c\xd7\x99\xd7\x93\xd7\x94'
p35
I4748
sS'http://dbpedia.org/property/\xd7\x94\xd7\x91\xd7\x90'
p36
I783
sS'http://dbpedia.org/property/extour'
p37
I1600
sS'http://dbpedia.org/property/constituency'
p38
I5390
sS'http://dbpedia.org/property/coach'
p39
I971
sS'http://dbpedia.org/property/currentclub'
p40
I65293
sS'http://dbpedia.org/property/introducer'
p41
I938
sS'http://dbpedia.org/property/honorificSuffix'
p42
I9163
sS'http://dbpedia.org/property/tour'
p43
I1210
sS'http://dbpedia.org/property/religion'
p44
I35584
sS'http://dbpedia.org/property/rank'
p45
I18976
sS'http://dbpedia.org/property/branch'
p46
I14570
sS'http://dbpedia.org/property/series'
p47
I2657
sS'http://dbpedia.org/property/school'
p48
I3526
sS'http://dbpedia.org/property/team'
p49
I17527
sS'http://dbpedia.org/property/restingPlace'
p50
I3814
sS'http://dbpedia.org/property/years'
p51
I1232
sS'http://dbpedia.org/property/constituencyAm'
p52
I1314
sS'http://dbpedia.org/property/genre'
p53
I41219
sS'http://dbpedia.org/property/before'
p54
I85635
sS'http://dbpedia.org/property/\xd7\xa2\xd7\xa0\xd7\xa3\xd7\x9e\xd7\x93\xd7\xa2\xd7\x99'
p55
I1148
sS'http://dbpedia.org/property/playerPositions'
p56
I1174
sS'http://dbpedia.org/property/label'
p57
I14836
sS'http://dbpedia.org/property/conference'
p58
I1236
sS'http://dbpedia.org/property/honorificPrefix'
p59
I9336
sS'http://dbpedia.org/property/discipline'
p60
I906
sS'http://dbpedia.org/property/highschool'
p61
I9491
sS'http://dbpedia.org/property/governor'
p62
I2497
sS'http://dbpedia.org/property/ruAmateurclubs'
p63
I1501
sS'http://dbpedia.org/property/partner'
p64
I1296
sS'http://dbpedia.org/property/birthPlace'
p65
I443393
sS'http://dbpedia.org/property/premier'
p66
I829
sS'http://dbpedia.org/property/currentConference'
p67
I1017
sS'http://dbpedia.org/property/country'
p68
I4464
sS'http://dbpedia.org/property/lastagainst'
p69
I1013
sS'http://dbpedia.org/property/teama'
p70
I3838
sS'http://dbpedia.org/property/teamb'
p71
I1829
sS'http://dbpedia.org/property/burialPlace'
p72
I801
sS'http://dbpedia.org/property/\xd7\x90\xd7\xa8\xd7\xa5\xd7\x9c\xd7\x99\xd7\x93\xd7\x94'
p73
I3720
sS'http://dbpedia.org/property/lieutenant'
p74
I1084
sS'http://dbpedia.org/property/finalteam'
p75
I6531
sS'http://dbpedia.org/property/profession'
p76
I8677
sS'http://dbpedia.org/property/\xd7\xa2\xd7\x99\xd7\xa8\xd7\x9c\xd7\x99\xd7\x93\xd7\x94'
p77
I2503
sS'http://dbpedia.org/property/publisher'
p78
I3913
sS'http://dbpedia.org/property/conf'
p79
I1911
sS'http://dbpedia.org/property/draftTeam'
p80
I9943
sS'http://dbpedia.org/property/\xd7\x9e\xd7\xa7\xd7\x95\xd7\x9d\xd7\xa4\xd7\x98\xd7\x99\xd7\xa8\xd7\x94'
p81
I1353
sS'http://dbpedia.org/property/clubs'
p82
I128360
sS'http://dbpedia.org/property/house'
p83
I5221
sS'http://dbpedia.org/property/name'
p84
I4815
sS'http://dbpedia.org/property/successor'
p85
I59207
sS'http://dbpedia.org/property/instrument'
p86
I16055
sS'http://dbpedia.org/property/notableInstruments'
p87
I1985
sS'http://dbpedia.org/property/\xd7\x90\xd7\xa8\xd7\xa6\xd7\x95\xd7\xaa\xd7\x9e\xd7\x92\xd7\x95\xd7\xa8\xd7\x99\xd7\x9d'
p88
I1751
sS'http://dbpedia.org/property/residence'
p89
I31562
sS'http://dbpedia.org/property/currentTitle'
p90
I647
sS'http://dbpedia.org/property/formerTeams'
p91
I5118
sS'http://dbpedia.org/property/portrayer'
p92
I4567
sS'http://dbpedia.org/property/father'
p93
I12493
sS'http://dbpedia.org/property/deathCause'
p94
I3670
sS'http://dbpedia.org/property/column'
p95
I11271
sS'http://dbpedia.org/property/ruProvince'
p96
I1535
sS'http://dbpedia.org/property/debutleague'
p97
I877
sS'http://dbpedia.org/property/commands'
p98
I6637
sS'http://dbpedia.org/property/league'
p99
I13771
sS'http://dbpedia.org/property/workInstitutions'
p100
I3296
sS'http://dbpedia.org/property/debutteam'
p101
I7983
sS'http://dbpedia.org/property/children'
p102
I6545
sS'http://dbpedia.org/property/careerPosition'
p103
I685
sS'http://dbpedia.org/property/formerpartner'
p104
I721
sS'http://dbpedia.org/property/position'
p105
I150867
sS'http://dbpedia.org/property/education'
p106
I11045
sS'http://dbpedia.org/property/see'
p107
I2461
sS'http://dbpedia.org/property/succeeded'
p108
I8406
sS'http://dbpedia.org/property/riding'
p109
I1272
sS'http://dbpedia.org/property/prevSeries'
p110
I920
sS'http://dbpedia.org/property/university'
p111
I1677
sS'http://dbpedia.org/property/dynasty'
p112
I652
sS'http://dbpedia.org/property/club'
p113
I19679
sS'http://dbpedia.org/property/president'
p114
I8039
sS'http://dbpedia.org/property/\xd7\xaa\xd7\xa4\xd7\xa7\xd7\x99\xd7\x93\xd7\x9b\xd7\xa9\xd7\x97\xd7\xa7\xd7\x9f'
p115
I2718
sS'http://dbpedia.org/property/debutagainst'
p116
I1538
sS'http://dbpedia.org/property/issue'
p117
I5650
sS'http://dbpedia.org/property/mainInterests'
p118
I1137
sS'http://dbpedia.org/property/relatives'
p119
I5055
sS'http://dbpedia.org/property/appointer'
p120
I2408
sS'http://dbpedia.org/property/with'
p121
I4755
sS'http://dbpedia.org/property/church'
p122
I3043
sS'http://dbpedia.org/property/fightingOutOf'
p123
I1126
sS'http://dbpedia.org/property/fields'
p124
I6659
sS'http://dbpedia.org/property/stat3label'
p125
I1655
sS'http://dbpedia.org/property/hometown'
p126
I1283
sS'http://dbpedia.org/property/homeTown'
p127
I2132
sS'http://dbpedia.org/property/style'
p128
I2251
sS'http://dbpedia.org/property/currentTeam'
p129
I2688
sS'http://dbpedia.org/property/appointed'
p130
I644
sS'http://dbpedia.org/property/youthclubs'
p131
I55916
sS'http://dbpedia.org/property/party'
p132
I65310
sS'http://dbpedia.org/property/training'
p133
I3086
sS'http://dbpedia.org/property/workplaces'
p134
I7214
sS'http://dbpedia.org/property/classification'
p135
I1595
sS'http://dbpedia.org/property/strokes'
p136
I2516
sS'http://dbpedia.org/property/\xd7\x9e\xd7\x93\xd7\x99\xd7\xa0\xd7\x94'
p137
I1528
sS'http://dbpedia.org/property/species'
p138
I977
sS'http://dbpedia.org/property/weight'
p139
I1249
sS'http://dbpedia.org/property/trainer'
p140
I1876
sS'http://dbpedia.org/property/collegeteam'
p141
I1471
sS'http://dbpedia.org/property/order'
p142
I3780
sS'http://dbpedia.org/property/knownFor'
p143
I8461
sS'http://dbpedia.org/property/preceded'
p144
I8744
sS'http://dbpedia.org/property/sport'
p145
I21116
sS'http://dbpedia.org/property/almaMater'
p146
I68864
sS'http://dbpedia.org/property/\xd7\xa1\xd7\x95\xd7\x92\xd7\x94'
p147
I635
sS'http://dbpedia.org/property/nominator'
p148
I594
sS'http://dbpedia.org/property/occupation'
p149
I62398
sS'http://dbpedia.org/property/college'
p150
I31320
sS'http://dbpedia.org/property/family'
p151
I2592
sS'http://dbpedia.org/property/cteam'
p152
I583
sS'http://dbpedia.org/property/playerTeam'
p153
I4251
sS'http://dbpedia.org/property/nobleFamily'
p154
I2399
sS'http://dbpedia.org/property/alliances'
p155
I2311
sS'http://dbpedia.org/property/placeofburial'
p156
I3584
sS'http://dbpedia.org/property/originalteam'
p157
I2636
sS'http://dbpedia.org/property/subject'
p158
I782
sS'http://dbpedia.org/property/organization'
p159
I1002
sS'http://dbpedia.org/property/spouse'
p160
I26638
sS'http://dbpedia.org/property/currentSeries'
p161
I589
sS'http://dbpedia.org/property/relstyle'
p162
I617
sS'http://dbpedia.org/property/placeOfBurial'
p163
I1348
sS'http://dbpedia.org/property/restingplace'
p164
I1442
sS'http://dbpedia.org/property/event'
p165
I3148
sS'http://dbpedia.org/property/primeminister'
p166
I6874
sS'http://dbpedia.org/property/placeOfDeath'
p167
I95321
sS'http://dbpedia.org/property/after'
p168
I86091
sS'http://dbpedia.org/property/language'
p169
I1311
sS'http://dbpedia.org/property/employer'
p170
I3934
sS'http://dbpedia.org/property/constituencyMp'
p171
I5194
sS'http://dbpedia.org/property/playingTeam'
p172
I6581
sS'http://dbpedia.org/property/citizenship'
p173
I4342
sS'http://dbpedia.org/property/ruPosition'
p174
I5223
sS'http://dbpedia.org/property/debutfor'
p175
I850
sS'http://dbpedia.org/property/origin'
p176
I13370
sS'http://dbpedia.org/property/state'
p177
I6255
sS'http://dbpedia.org/property/creators'
p178
I3302
sS'http://dbpedia.org/property/deathPlace'
p179
I112457
sS'http://dbpedia.org/property/veneratedIn'
p180
I2655
sS'http://dbpedia.org/property/ruProclubs'
p181
I2853
sS'http://dbpedia.org/property/highSchool'
p182
I4263
sS'http://dbpedia.org/property/mother'
p183
I8008
sS'http://dbpedia.org/property/managerclubs'
p184
I16559
sS'http://dbpedia.org/property/title'
p185
I75937
sS'http://dbpedia.org/property/succession'
p186
I2127
sS'http://dbpedia.org/property/otherparty'
p187
I1763
sS'http://dbpedia.org/property/influenced'
p188
I2877
sS'http://dbpedia.org/property/\xd7\xa1\xd7\x99\xd7\xa2\xd7\x95\xd7\xaa'
p189
I653
sS'http://dbpedia.org/property/alongside'
p190
I3246
sS'http://dbpedia.org/property/proteam'
p191
I1074
sS'http://dbpedia.org/property/doctoralStudents'
p192
I2181
sS'http://dbpedia.org/property/workInstitution'
p193
I3184
sS'http://dbpedia.org/property/movement'
p194
I4245
sS'http://dbpedia.org/property/parents'
p195
I5196
sS'http://dbpedia.org/property/battles'
p196
I23068
sS'http://dbpedia.org/property/\xd7\x9e\xd7\x95\xd7\xa2\xd7\x93\xd7\x95\xd7\xa0\xd7\x99\xd7\xa0\xd7\x95\xd7\xa2\xd7\xa8'
p197
I846
sS'http://dbpedia.org/property/office'
p198
I18323
sS'http://dbpedia.org/property/data'
p199
I689
sS'http://dbpedia.org/property/influences'
p200
I5080
s.