(dp0
S'http://dbpedia.org/property/origin'
p1
I4534
sS'http://dbpedia.org/property/doctoralAdvisor'
p2
I1595
sS'http://dbpedia.org/ontology/recordLabel'
p3
I6255
sS'http://dbpedia.org/ontology/governor'
p4
I658
sS'http://dbpedia.org/property/statlabel'
p5
I478
sS'http://dbpedia.org/property/allegiance'
p6
I2528
sS'http://dbpedia.org/property/ethnicity'
p7
I2075
sS'http://dbpedia.org/property/creator'
p8
I969
sS'http://dbpedia.org/ontology/veneratedIn'
p9
I726
sS'http://dbpedia.org/property/awards'
p10
I7512
sS'http://dbpedia.org/ontology/termPeriod'
p11
I18609
sS'http://dbpedia.org/property/monarch'
p12
I1128
sS'http://dbpedia.org/ontology/field'
p13
I7187
sS'http://dbpedia.org/property/unit'
p14
I1514
sS'http://dbpedia.org/ontology/militaryUnit'
p15
I3024
sS'http://dbpedia.org/property/relations'
p16
I965
sS'http://dbpedia.org/ontology/nationality'
p17
I38504
sS'http://dbpedia.org/property/shortDescription'
p18
I2540
sS'http://dbpedia.org/property/youthclubs'
p19
I20635
sS'http://dbpedia.org/ontology/occupation'
p20
I58728
sS'http://dbpedia.org/property/coachTeam'
p21
I2610
sS'http://dbpedia.org/property/associatedActs'
p22
I5451
sS'http://dbpedia.org/property/movement'
p23
I1205
sS'http://dbpedia.org/property/stat1label'
p24
I2856
sS'http://dbpedia.org/property/office'
p25
I5654
sS'http://dbpedia.org/ontology/residence'
p26
I14961
sS'http://dbpedia.org/ontology/award'
p27
I10940
sS'http://dbpedia.org/property/ruNationalteam'
p28
I1107
sS'http://dbpedia.org/property/position'
p29
I54144
sS'http://dbpedia.org/ontology/notableWork'
p30
I717
sS'http://dbpedia.org/ontology/club'
p31
I645
sS'http://dbpedia.org/property/weightClass'
p32
I523
sS'http://dbpedia.org/ontology/predecessor'
p33
I12781
sS'http://dbpedia.org/property/\xd7\x9e\xd7\xa7\xd7\x95\xd7\x9d\xd7\x9c\xd7\x99\xd7\x93\xd7\x94'
p34
I885
sS'http://dbpedia.org/ontology/college'
p35
I3997
sS'http://dbpedia.org/property/residence'
p36
I11462
sS'http://dbpedia.org/property/constituency'
p37
I1917
sS'http://dbpedia.org/property/currentclub'
p38
I23987
sS'http://dbpedia.org/property/honorificSuffix'
p39
I2745
sS'http://dbpedia.org/ontology/hometown'
p40
I7764
sS'http://dbpedia.org/property/highschool'
p41
I3437
sS'http://dbpedia.org/ontology/restingPlace'
p42
I4068
sS'http://dbpedia.org/property/religion'
p43
I11450
sS'http://dbpedia.org/property/rank'
p44
I5845
sS'http://dbpedia.org/ontology/religion'
p45
I10361
sS'http://dbpedia.org/ontology/profession'
p46
I3289
sS'http://dbpedia.org/property/branch'
p47
I4572
sS'http://www.w3.org/2000/01/rdf-schema#seeAlso'
p48
I1493
sS'http://dbpedia.org/property/series'
p49
I675
sS'http://dbpedia.org/property/school'
p50
I1142
sS'http://dbpedia.org/ontology/citizenship'
p51
I1767
sS'http://dbpedia.org/ontology/knownFor'
p52
I7324
sS'http://dbpedia.org/property/restingPlace'
p53
I1086
sS'http://dbpedia.org/property/president'
p54
I2221
sS'http://dbpedia.org/ontology/wikiPageWikiLink'
p55
I8730
sS'http://dbpedia.org/ontology/instrument'
p56
I6483
sS'http://dbpedia.org/property/genre'
p57
I13292
sS'http://dbpedia.org/property/before'
p58
I24341
sS'http://dbpedia.org/property/label'
p59
I4544
sS'http://dbpedia.org/property/ruPosition'
p60
I1809
sS'http://dbpedia.org/ontology/country'
p61
I16827
sS'http://dbpedia.org/property/honorificPrefix'
p62
I2501
sS'http://dbpedia.org/ontology/draftTeam'
p63
I3224
sS'http://dbpedia.org/property/clubs'
p64
I46050
sS'http://dbpedia.org/property/governor'
p65
I650
sS'http://dbpedia.org/property/nationalteam'
p66
I20730
sS'http://dbpedia.org/property/birthPlace'
p67
I150613
sS'http://dbpedia.org/property/playedFor'
p68
I2275
sS'http://dbpedia.org/property/predecessor'
p69
I19378
sS'http://dbpedia.org/property/country'
p70
I1562
sS'http://dbpedia.org/property/teama'
p71
I994
sS'http://dbpedia.org/ontology/movement'
p72
I1179
sS'http://dbpedia.org/property/\xd7\x90\xd7\xa8\xd7\xa5\xd7\x9c\xd7\x99\xd7\x93\xd7\x94'
p73
I855
sS'http://dbpedia.org/ontology/party'
p74
I22896
sS'http://dbpedia.org/ontology/highschool'
p75
I495
sS'http://dbpedia.org/ontology/successor'
p76
I16151
sS'http://dbpedia.org/ontology/managerClub'
p77
I5819
sS'http://dbpedia.org/property/finalteam'
p78
I2024
sS'http://dbpedia.org/property/profession'
p79
I2766
sS'http://dbpedia.org/ontology/deathPlace'
p80
I63903
sS'http://dbpedia.org/property/\xd7\xa2\xd7\x99\xd7\xa8\xd7\x9c\xd7\x99\xd7\x93\xd7\x94'
p81
I460
sS'http://dbpedia.org/property/publisher'
p82
I972
sS'http://dbpedia.org/property/conf'
p83
I607
sS'http://dbpedia.org/property/draftTeam'
p84
I3193
sS'http://dbpedia.org/ontology/genre'
p85
I14531
sS'http://dbpedia.org/property/house'
p86
I1418
sS'http://dbpedia.org/ontology/birthPlace'
p87
I226938
sS'http://dbpedia.org/property/name'
p88
I1823
sS'http://dbpedia.org/ontology/associatedBand'
p89
I7271
sS'http://dbpedia.org/property/instrument'
p90
I5255
sS'http://dbpedia.org/ontology/training'
p91
I1138
sS'http://dbpedia.org/property/citizenship'
p92
I1428
sS'http://dbpedia.org/ontology/stateOfOrigin'
p93
I11951
sS'http://dbpedia.org/property/formerTeams'
p94
I1698
sS'http://dbpedia.org/ontology/associatedMusicalArtist'
p95
I7271
sS'http://dbpedia.org/property/portrayer'
p96
I1448
sS'http://dbpedia.org/property/father'
p97
I3587
sS'http://dbpedia.org/ontology/parent'
p98
I5477
sS'http://dbpedia.org/property/deathCause'
p99
I900
sS'http://dbpedia.org/property/column'
p100
I4136
sS'http://dbpedia.org/property/ruProvince'
p101
I500
sS'http://dbpedia.org/property/commands'
p102
I2025
sS'http://dbpedia.org/property/league'
p103
I4775
sS'http://dbpedia.org/ontology/spouse'
p104
I8009
sS'http://dbpedia.org/property/workInstitutions'
p105
I915
sS'http://dbpedia.org/ontology/televisionSeries'
p106
I592
sS'http://dbpedia.org/property/debutteam'
p107
I2646
sS'http://dbpedia.org/ontology/president'
p108
I2146
sS'http://dbpedia.org/property/children'
p109
I1865
sS'http://dbpedia.org/property/field'
p110
I4264
sS'http://www.w3.org/1999/02/22-rdf-syntax-ns#type'
p111
I436775
sS'http://dbpedia.org/ontology/school'
p112
I1486
sS'http://dbpedia.org/property/education'
p113
I3627
sS'http://dbpedia.org/property/see'
p114
I524
sS'http://dbpedia.org/ontology/education'
p115
I4528
sS'http://dbpedia.org/property/succeeded'
p116
I2542
sS'http://dbpedia.org/ontology/relative'
p117
I2140
sS'http://dbpedia.org/ontology/deathCause'
p118
I1137
sS'http://dbpedia.org/property/placeOfBirth'
p119
I111024
sS'http://dbpedia.org/property/club'
p120
I6853
sS'http://dbpedia.org/ontology/primeMinister'
p121
I1919
sS'http://dbpedia.org/property/\xd7\xaa\xd7\xa4\xd7\xa7\xd7\x99\xd7\x93\xd7\x9b\xd7\xa9\xd7\x97\xd7\xa7\xd7\x9f'
p122
I584
sS'http://dbpedia.org/property/debutagainst'
p123
I484
sS'http://dbpedia.org/property/issue'
p124
I1426
sS'http://dbpedia.org/ontology/league'
p125
I4516
sS'http://dbpedia.org/property/relatives'
p126
I1581
sS'http://xmlns.com/foaf/0.1/depiction'
p127
I121160
sS'http://xmlns.com/foaf/0.1/isPrimaryTopicOf'
p128
I435128
sS'http://dbpedia.org/property/church'
p129
I827
sS'http://dbpedia.org/property/fields'
p130
I2167
sS'http://dbpedia.org/ontology/relation'
p131
I1377
sS'http://dbpedia.org/ontology/thumbnail'
p132
I121160
sS'http://dbpedia.org/property/primeminister'
p133
I1901
sS'http://dbpedia.org/property/style'
p134
I538
sS'http://dbpedia.org/ontology/ethnicity'
p135
I2309
sS'http://dbpedia.org/property/party'
p136
I21356
sS'http://dbpedia.org/property/training'
p137
I848
sS'http://dbpedia.org/property/workplaces'
p138
I2407
sS'http://dbpedia.org/property/strokes'
p139
I989
sS'http://dbpedia.org/ontology/militaryBranch'
p140
I7108
sS'http://dbpedia.org/property/order'
p141
I910
sS'http://dbpedia.org/property/knownFor'
p142
I2502
sS'http://dbpedia.org/property/successor'
p143
I17069
sS'http://dbpedia.org/ontology/debutTeam'
p144
I9062
sS'http://dbpedia.org/property/sport'
p145
I9997
sS'http://dbpedia.org/ontology/influencedBy'
p146
I1956
sS'http://dbpedia.org/property/almaMater'
p147
I22487
sS'http://dbpedia.org/ontology/militaryRank'
p148
I811
sS'http://dbpedia.org/property/university'
p149
I502
sS'http://dbpedia.org/ontology/team'
p150
I55012
sS'http://dbpedia.org/property/family'
p151
I675
sS'http://dbpedia.org/property/currentTeam'
p152
I879
sS'http://dbpedia.org/property/playerTeam'
p153
I1455
sS'http://dbpedia.org/property/occupation'
p154
I21042
sS'http://dbpedia.org/ontology/battle'
p155
I7635
sS'http://dbpedia.org/property/alliances'
p156
I465
sS'http://dbpedia.org/property/placeofburial'
p157
I892
sS'http://dbpedia.org/property/originalteam'
p158
I743
sS'http://dbpedia.org/property/team'
p159
I6110
sS'http://dbpedia.org/property/spouse'
p160
I7225
sS'http://dbpedia.org/ontology/child'
p161
I2681
sS'http://dbpedia.org/property/workInstitution'
p162
I994
sS'http://www.w3.org/2002/07/owl#differentFrom'
p163
I2570
sS'http://dbpedia.org/property/event'
p164
I1420
sS'http://dbpedia.org/property/placeOfDeath'
p165
I28451
sS'http://dbpedia.org/property/after'
p166
I24430
sS'http://dbpedia.org/property/counties'
p167
I798
sS'http://dbpedia.org/property/employer'
p168
I1246
sS'http://dbpedia.org/ontology/monarch'
p169
I1141
sS'http://dbpedia.org/property/constituencyMp'
p170
I1687
sS'http://dbpedia.org/ontology/formerTeam'
p171
I10756
sS'http://dbpedia.org/ontology/personFunction'
p172
I1368
sS'http://dbpedia.org/property/playingTeam'
p173
I2188
sS'http://dbpedia.org/ontology/creator'
p174
I1840
sS'http://dbpedia.org/property/nationality'
p175
I17952
sS'http://purl.org/dc/terms/subject'
p176
I435141
sS'http://dbpedia.org/property/state'
p177
I1592
sS'http://dbpedia.org/property/creators'
p178
I771
sS'http://dbpedia.org/property/deathPlace'
p179
I34794
sS'http://dbpedia.org/property/veneratedIn'
p180
I711
sS'http://dbpedia.org/property/ruProclubs'
p181
I950
sS'http://dbpedia.org/property/highSchool'
p182
I1476
sS'http://dbpedia.org/property/mother'
p183
I2178
sS'http://dbpedia.org/property/managerclubs'
p184
I5706
sS'http://dbpedia.org/ontology/doctoralAdvisor'
p185
I1659
sS'http://dbpedia.org/ontology/region'
p186
I6435
sS'http://dbpedia.org/property/title'
p187
I21986
sS'http://dbpedia.org/property/college'
p188
I10886
sS'http://dbpedia.org/property/alongside'
p189
I608
sS'http://dbpedia.org/ontology/almaMater'
p190
I23477
sS'http://dbpedia.org/ontology/careerStation'
p191
I44952
sS'http://dbpedia.org/property/preceded'
p192
I2711
sS'http://dbpedia.org/property/parents'
p193
I1541
sS'http://dbpedia.org/property/battles'
p194
I6921
sS'http://dbpedia.org/ontology/position'
p195
I54806
sS'http://dbpedia.org/ontology/series'
p196
I487
sS'http://dbpedia.org/ontology/portrayer'
p197
I637
sS'http://dbpedia.org/property/with'
p198
I1395
sS'http://dbpedia.org/property/influences'
p199
I1437
sS'http://dbpedia.org/ontology/employer'
p200
I1503
s.